
output/hpu.mo:     file format elf32-littleriscv
output/hpu.mo
architecture: riscv:rv32, flags 0x00000112:
EXEC_P, HAS_SYMS, D_PAGED
start address 0x00000000

Program Header:
    LOAD off    0x00001000 vaddr 0x00000000 paddr 0x00000000 align 2**12
         filesz 0x000032b8 memsz 0x000032b8 flags r-x
    LOAD off    0x00005000 vaddr 0x00100000 paddr 0x00100000 align 2**12
         filesz 0x0000169c memsz 0x0000169c flags rw-

Sections:
Idx Name          Size      VMA       LMA       File off  Algn
  0 .text.init    00000008  00000000  00000000  00001000  2**2
                  CONTENTS, ALLOC, LOAD, READONLY, CODE
  1 .text         000031b8  00000100  00000100  00001100  2**8
                  CONTENTS, ALLOC, LOAD, READONLY, CODE
  2 .rodata       00000014  00100000  00100000  00005000  2**2
                  CONTENTS, ALLOC, LOAD, READONLY, DATA
  3 .bss          00000068  00100014  00100014  00005014  2**2
                  ALLOC
  4 .sbss         0000003c  0010007c  0010007c  00005014  2**2
                  ALLOC
  5 .data         00001590  001000b8  001000b8  000050b8  2**2
                  CONTENTS, ALLOC, LOAD, DATA
  6 .sdata        00000054  00101648  00101648  00006648  2**2
                  CONTENTS, ALLOC, LOAD, DATA
  7 .debug_info   00001ec8  00000000  00000000  0000669c  2**0
                  CONTENTS, READONLY, DEBUGGING
  8 .debug_abbrev 0000021e  00000000  00000000  00008564  2**0
                  CONTENTS, READONLY, DEBUGGING
  9 .debug_aranges 00000058  00000000  00000000  00008782  2**0
                  CONTENTS, READONLY, DEBUGGING
 10 .debug_line   00001378  00000000  00000000  000087da  2**0
                  CONTENTS, READONLY, DEBUGGING
 11 .debug_str    00000b9b  00000000  00000000  00009b52  2**0
                  CONTENTS, READONLY, DEBUGGING
 12 .comment      00000011  00000000  00000000  0000a6ed  2**0
                  CONTENTS, READONLY
 13 .debug_frame  0000012c  00000000  00000000  0000a700  2**2
                  CONTENTS, READONLY, DEBUGGING
SYMBOL TABLE:
00000000 l    d  .text.init	00000000 .text.init
00000100 l    d  .text	00000000 .text
00100000 l    d  .rodata	00000000 .rodata
00100014 l    d  .bss	00000000 .bss
0010007c l    d  .sbss	00000000 .sbss
001000b8 l    d  .data	00000000 .data
00101648 l    d  .sdata	00000000 .sdata
00000000 l    d  .debug_info	00000000 .debug_info
00000000 l    d  .debug_abbrev	00000000 .debug_abbrev
00000000 l    d  .debug_aranges	00000000 .debug_aranges
00000000 l    d  .debug_line	00000000 .debug_line
00000000 l    d  .debug_str	00000000 .debug_str
00000000 l    d  .comment	00000000 .comment
00000000 l    d  .debug_frame	00000000 .debug_frame
00000000 l    df *ABS*	00000000 _init.o
02000000 l       *ABS*	00000000 CLINT
0c000000 l       *ABS*	00000000 PLIC
00000000 l       *ABS*	00000000 ITCM
00100000 l       *ABS*	00000000 DTCM
00102000 l       *ABS*	00000000 STACK_BASE_ADDR
20002000 l       *ABS*	00000000 PS_CTRL_IF
20000000 l       *ABS*	00000000 DPU_REGMGR
20000100 l       *ABS*	00000000 DPU_CONV
20000200 l       *ABS*	00000000 DPU_DWCALC
20000300 l       *ABS*	00000000 DPU_DTRANS
20000400 l       *ABS*	00000000 DPU_FTRANS
20000500 l       *ABS*	00000000 DPU_LDMR
20000600 l       *ABS*	00000000 DPU_SVMR
20000700 l       *ABS*	00000000 DPU_DLCTRL
20000800 l       *ABS*	00000000 DPU_UPLCTRL
00000160 l       .text	00000000 intr_conv_entry
00000130 l       .text	00000000 loop1
00000270 l       .text	00000000 mint_exit
00000180 l       .text	00000000 intr_dwcalc_entry
000001a0 l       .text	00000000 intr_dtrans_entry
000001c0 l       .text	00000000 intr_ftrans_entry
000001e0 l       .text	00000000 intr_ldmr_entry
00000200 l       .text	00000000 intr_svmr_entry
00000220 l       .text	00000000 intr_resv0_entry
00000240 l       .text	00000000 intr_resv1_entry
00000260 l       .text	00000000 intr_stcalc_entry
00000000 l    df *ABS*	00000000 main.c
00000000 l    df *ABS*	00000000 shufflenet_v2.c
00000000 l    df *ABS*	00000000 shufflenet_v2_data.c
00000000 l    df *ABS*	00000000 hpu_api.o
02000000 l       *ABS*	00000000 CLINT
0c000000 l       *ABS*	00000000 PLIC
00000000 l       *ABS*	00000000 ITCM
00100000 l       *ABS*	00000000 DTCM
00102000 l       *ABS*	00000000 STACK_BASE_ADDR
20002000 l       *ABS*	00000000 PS_CTRL_IF
20000000 l       *ABS*	00000000 DPU_REGMGR
20000100 l       *ABS*	00000000 DPU_CONV
20000200 l       *ABS*	00000000 DPU_DWCALC
20000300 l       *ABS*	00000000 DPU_DTRANS
20000400 l       *ABS*	00000000 DPU_FTRANS
20000500 l       *ABS*	00000000 DPU_LDMR
20000600 l       *ABS*	00000000 DPU_SVMR
20000700 l       *ABS*	00000000 DPU_DLCTRL
20000800 l       *ABS*	00000000 DPU_UPLCTRL
00000008 l       *ABS*	00000000 LEN_DPU_CONV
00000008 l       *ABS*	00000000 LEN_DPU_DWCALC
00000005 l       *ABS*	00000000 LEN_DPU_DTRANS
00000004 l       *ABS*	00000000 LEN_DPU_FTRANS
00000005 l       *ABS*	00000000 LEN_DPU_LDMR
00000004 l       *ABS*	00000000 LEN_DPU_SVMR
00000003 l       *ABS*	00000000 LEN_DPU_DLCTRL
00000001 l       *ABS*	00000000 LEN_DPU_UPLCTRL
00000001 l       *ABS*	00000000 INTR_H
00000000 l       *ABS*	00000000 INTR_L
00002f30 l       .text	00000000 set_param
00002fb4 l       .text	00000000 conv_check_exit
0000301c l       .text	00000000 dwcalc_check_exit
00003080 l       .text	00000000 dtrans_check_exit
000030e4 l       .text	00000000 ftrans_check_exit
00003148 l       .text	00000000 ldmr_check_exit
000031ac l       .text	00000000 svmr_check_exit
00000000 l    df *ABS*	00000000 intr.o
02000000 l       *ABS*	00000000 CLINT
0c000000 l       *ABS*	00000000 PLIC
00000000 l       *ABS*	00000000 ITCM
00100000 l       *ABS*	00000000 DTCM
00102000 l       *ABS*	00000000 STACK_BASE_ADDR
20002000 l       *ABS*	00000000 PS_CTRL_IF
20000000 l       *ABS*	00000000 DPU_REGMGR
20000100 l       *ABS*	00000000 DPU_CONV
20000200 l       *ABS*	00000000 DPU_DWCALC
20000300 l       *ABS*	00000000 DPU_DTRANS
20000400 l       *ABS*	00000000 DPU_FTRANS
20000500 l       *ABS*	00000000 DPU_LDMR
20000600 l       *ABS*	00000000 DPU_SVMR
20000700 l       *ABS*	00000000 DPU_DLCTRL
20000800 l       *ABS*	00000000 DPU_UPLCTRL
00101134 g     O .data	00000014 g_fmtrans_ifm
00100cec g     O .data	0000003c g_blk2_x_dwc_bias
0010053c g     O .data	000000e0 g_blk4_x_rb
00101334 g     O .data	000000b4 g_blk6_x_conv_wt
00101698 g     O .sdata	00000004 g_convf_fm_height
00100c74 g     O .data	0000003c g_blk2_x_dwc_wt
00101650 g     O .sdata	00000004 calc_ifm_index
0000314c g       .text	00000000 svmr_set
00100088 g     O .sbss	00000004 calc_en
00100c14 g     O .data	00000014 g_blk1_1_conv_bias
00101674 g     O .sdata	00000004 g_blk2_x_fm_height
0010163c g       .data	00000000 intr_ldmr_act
001003bc g     O .data	00000020 g_blk3_1_lb
0010009c g     O .sbss	00000004 conv_line
001000c4 g     O .data	00000020 fm_layer0_table_addr
00100090 g     O .sbss	00000004 calc_line
00100c28 g     O .data	00000010 g_blk1_1_ofm
0010165c g     O .sdata	00000004 conv_ofm_index
00100b48 g     O .data	00000010 g_convf_ft
001000ac g     O .sbss	00000004 svmr_en
001001e8 g     O .data	00000020 g_blk1_1_lb
00100fac g     O .data	0000008c g_blk4_x_dwc_bias
00003250 g       .text	00000000 init_intr
00100df8 g     O .data	00000010 g_blk3_1_ofm
00100180 g     O .data	00000014 fm_cmdstream0_table_addr
00100288 g     O .data	00000060 g_blk2_x_ra
000030e8 g       .text	00000000 ldmr_set
00100014 g     O .bss	00000004 pool1_param
00100780 g     O .data	00000020 g_blk5_1_rb
00003048 g       .text	00000000 dtrans_start
00002ff4 g       .text	00000000 dwcalc_check
00100154 g     O .data	0000001c fm_conv0_table_addr
00101640 g       .data	00000000 intr_svmr_act
00002f50 g       .text	00000000 conv_set
00100d64 g     O .data	00000030 g_blk2_x_ofm
00003084 g       .text	00000000 ftrans_set
00003188 g       .text	00000000 svmr_check
000031b0 g       .text	00000000 dlctrl_set
00100018 g     O .bss	00000004 bias_conv_param
00101684 g     O .sdata	00000004 g_blk4_x_ifm_offset
001003dc g     O .data	00000020 g_blk3_1_lc
0010001c g     O .bss	00000004 dtrans_param
00100020 g     O .bss	00000004 conv_pad_width
001007a0 g     O .data	00000020 g_blk5_1_rc
00100da8 g     O .data	00000014 g_blk3_1_dwc_wt
00100024 g     O .bss	00000004 ofm_param
0010167c g     O .sdata	00000004 g_blk3_1_fm_height
0010012c g     O .data	00000014 fm_layer4_table_addr
0010168c g     O .sdata	00000004 g_blk5_1_fm_height
001015f4 g     O .data	00000014 g_convf_wt
00101550 g     O .data	00000090 g_blk6_x_ofm
00100028 g     O .bss	00000004 right_c_param
00000390 g     F .text	00000a10 conv1_pool1
00000100 g       .text	00000000 mintvec
001001c8 g     O .data	00000020 g_pool1
00100228 g     O .data	00000020 g_blk1_1_ra
001000b4 g     O .sbss	00000004 svmr_line
000030ac g       .text	00000000 ftrans_start
00100720 g     O .data	00000020 g_blk5_1_lb
00101690 g     O .sdata	00000004 g_blk6_x_fm_height
0010002c g     O .bss	00000004 right_b_param
00100208 g     O .data	00000020 g_blk1_1_lc
00002fb8 g       .text	00000000 dwcalc_set
000021a8 g     F .text	0000014c trans_fmt
00100098 g     O .sbss	00000004 conv_busy
001010c4 g     O .data	00000070 g_blk4_x_ofm
00100030 g     O .bss	00000004 left_c_param
00003124 g       .text	00000000 ldmr_check
00100dbc g     O .data	00000014 g_blk3_1_conv_wt
00100c00 g     O .data	00000014 g_blk1_1_dwc_bias
00100760 g     O .data	00000020 g_blk5_1_ra
00100034 g     O .bss	00000004 conv_lb_fm_width
0010116c g     O .data	00000014 g_blk5_1_dwc_wt
00101180 g     O .data	00000014 g_blk5_1_conv_wt
00100dd0 g     O .data	00000014 g_blk3_1_dwc_bias
00000da0 g     F .text	00000c48 interlayer_conv_a
00100038 g     O .bss	00000004 conv_param
00002f78 g       .text	00000000 conv_start
00101664 g     O .sdata	00000004 dwc_ofm_index
0010061c g     O .data	000000e0 g_blk4_x_rc
00100e94 g     O .data	0000008c g_blk4_x_dwc_wt
00100de4 g     O .data	00000014 g_blk3_1_conv_bias
001003fc g     O .data	00000020 g_blk3_1_ra
00100d28 g     O .data	0000003c g_blk2_x_conv_bias
0010003c g     O .bss	00000004 ifm_param
00100040 g     O .bss	00000004 left_dt_param
00101194 g     O .data	00000014 g_blk5_1_dwc_bias
00101638 g       .data	00000000 intr_ftrans_act
00100118 g     O .data	00000014 fm_layer3_table_addr
001008e0 g     O .data	00000120 g_blk6_x_rb
00000000 g       .text.init	00000000 _start
00100348 g     O .data	00000060 g_blk2_x_rc
00002fe0 g       .text	00000000 dwcalc_start
001000e4 g     O .data	00000020 fm_layer1_table_addr
001011a8 g     O .data	00000014 g_blk5_1_conv_bias
00100740 g     O .data	00000020 g_blk5_1_lc
00101658 g     O .sdata	00000004 conv_ifm_index
00101670 g     O .sdata	00000004 g_blk1_1_fm_height
00100f20 g     O .data	0000008c g_blk4_x_conv_wt
00003174 g       .text	00000000 svmr_start
001013e8 g     O .data	000000b4 g_blk6_x_dwc_bias
00003240 g       .text	00000000 fshflg_ps
00100044 g     O .bss	00000004 bias_dwc_param
00101678 g     O .sdata	00000004 g_blk2_x_ifm_offset
00100248 g     O .data	00000020 g_blk1_1_rb
00100048 g     O .bss	00000004 pool_fm_height
001000a8 g     O .sbss	00000004 dwc_line
0010041c g     O .data	00000020 g_blk3_1_rb
0010149c g     O .data	000000b4 g_blk6_x_conv_bias
00100170 g     O .data	00000010 fm_conv1_table_addr
00101680 g     O .sdata	00000004 g_blk4_x_fm_height
0010004c g     O .bss	00000004 conv_ch64
00100140 g     O .data	00000014 fm_layer5_table_addr
001006fc g     O .data	00000014 g_blk4_x_dt
00100b8c g     O .data	00000014 g_conv1_wt
001002e8 g     O .data	00000060 g_blk2_x_rb
00100e08 g     O .data	0000008c g_blk4_x_ifm
00101648 g     O .sdata	00000004 fm_conv2_table_addr
001011cc g     O .data	000000b4 g_blk6_x_ifm
00101668 g     O .sdata	00000004 svmr_index
000030c0 g       .text	00000000 ftrans_check
000022f4 g     F .text	000003b0 convf
00100080 g     O .sbss	00000004 ldmr_busy
00100084 g     O .sbss	00000004 ldmr_line
00101608 g     O .data	00000014 g_convf_bias
00000340 g     F .text	00000050 main
00101654 g     O .sdata	00000004 calc_ofm_index
00101644 g       .data	00000000 intr_stcalc_act
0000322c g       .text	00000000 uplctrl_start
0010043c g     O .data	00000020 g_blk3_1_rc
00100bb4 g     O .data	00000010 g_conv1_ofm
00101280 g     O .data	000000b4 g_blk6_x_dwc_wt
00101694 g     O .sdata	00000004 g_blk6_x_ifm_offset
00101634 g       .data	00000000 intr_dtrans_act
00100cb0 g     O .data	0000003c g_blk2_x_conv_wt
00101688 g     O .sdata	00000004 g_fmtrans_fm_height
00100268 g     O .data	00000020 g_blk1_1_rc
00100050 g     O .bss	00000004 conv_rb_pad_width
001003a8 g     O .data	00000014 g_blk2_x_dt
00100054 g     O .bss	00000004 conv_fm_height
00100058 g     O .bss	00000004 wt_dwc_param
00100d94 g     O .data	00000014 g_blk3_1_ifm
00101158 g     O .data	00000014 g_blk5_1_ifm
0010161c g     O .data	00000010 g_convf_ofm
00100bec g     O .data	00000014 g_blk1_1_conv_wt
00100b34 g     O .data	00000014 g_convf_dt
0010164c g     O .sdata	00000004 ldmr_index
00002f8c g       .text	00000000 conv_check
00100b78 g     O .data	00000014 g_conv1_ifm
00100104 g     O .data	00000014 fm_layer2_table_addr
00100194 g     O .data	00000014 fm_cmdstream1_table_addr
0010162c g       .data	00000000 intr_conv_act
0010005c g     O .bss	00000004 left_b_param
001000b0 g     O .sbss	00000004 svmr_busy
0010007c g     O .sbss	00000004 ldmr_en
000026a4 g     F .text	0000088c shufflenet_v2
00100c38 g     O .data	0000003c g_blk2_x_ifm
0010008c g     O .sbss	00000004 calc_busy
0010166c g     O .sdata	00000004 g_conv1_fm_height
00100060 g     O .bss	00000004 conv_lb_pad_width
00100710 g     O .data	00000010 g_fmtrans
001000a0 g     O .sbss	00000004 dwc_en
00100064 g     O .bss	00000004 conv_rb_fm_width
00101660 g     O .sdata	00000004 dwc_ifm_index
00101038 g     O .data	0000008c g_blk4_x_conv_bias
001011bc g     O .data	00000010 g_blk5_1_ofm
001015e0 g     O .data	00000014 g_convf_ifm
00101148 g     O .data	00000010 g_fmtrans_ofm
00100bd8 g     O .data	00000014 g_blk1_1_dwc_wt
00100bc4 g     O .data	00000014 g_blk1_1_ifm
001001a8 g     O .data	00000020 g_conv1
00100b58 g     O .data	00000020 g_convf
00100068 g     O .bss	00000004 pool_width
00003020 g       .text	00000000 dtrans_set
00100ba0 g     O .data	00000014 g_conv1_bias
001000b8 g     O .data	0000000c g_dlctrl_param
001007c0 g     O .data	00000120 g_blk6_x_ra
0000305c g       .text	00000000 dtrans_check
00100b20 g     O .data	00000014 g_blk6_x_dt
000019e8 g     F .text	000007c0 interlayer_conv_b
0010006c g     O .bss	00000004 ftrans_param
0010045c g     O .data	000000e0 g_blk4_x_ra
00100070 g     O .bss	00000004 wt_conv_param
00100a00 g     O .data	00000120 g_blk6_x_rc
00100074 g     O .bss	00000004 conv_ifm_offset
00100078 g     O .bss	00000004 right_a_param
00003110 g       .text	00000000 ldmr_start
00100094 g     O .sbss	00000004 conv_en
00003204 g       .text	00000000 uplctrl_set
00101630 g       .data	00000000 intr_dwcalc_act
001000a4 g     O .sbss	00000004 dwc_busy



Disassembly of section .text.init:

00000000 <_start>:
   0:	00102137          	lui	sp,0x102
   4:	33c000ef          	jal	ra,340 <main>

Disassembly of section .text:

00000100 <mintvec>:
     100:	fe410113          	addi	sp,sp,-28 # 101fe4 <g_convf_fm_height+0x94c>
     104:	00512c23          	sw	t0,24(sp)
     108:	00612a23          	sw	t1,20(sp)
     10c:	00712823          	sw	t2,16(sp)
     110:	01c12623          	sw	t3,12(sp)
     114:	01d12423          	sw	t4,8(sp)
     118:	01e12223          	sw	t5,4(sp)
     11c:	0000c28b          	0xc28b
     120:	00000313          	li	t1,0
     124:	00000e97          	auipc	t4,0x0
     128:	03ce8e93          	addi	t4,t4,60 # 160 <intr_conv_entry>
     12c:	0032d293          	srli	t0,t0,0x3

00000130 <loop1>:
     130:	14028063          	beqz	t0,270 <mint_exit>
     134:	00900393          	li	t2,9
     138:	12730c63          	beq	t1,t2,270 <mint_exit>
     13c:	00100393          	li	t2,1
     140:	0072fe33          	and	t3,t0,t2
     144:	00531f13          	slli	t5,t1,0x5
     148:	00130313          	addi	t1,t1,1
     14c:	0012d293          	srli	t0,t0,0x1
     150:	fe0e00e3          	beqz	t3,130 <loop1>
     154:	01ee8e33          	add	t3,t4,t5
     158:	00100f13          	li	t5,1
     15c:	000e0067          	jr	t3

00000160 <intr_conv_entry>:
     160:	00101397          	auipc	t2,0x101
     164:	4cc38393          	addi	t2,t2,1228 # 10162c <intr_conv_act>
     168:	01e3a023          	sw	t5,0(t2)
     16c:	20000e37          	lui	t3,0x20000
     170:	100e0e13          	addi	t3,t3,256 # 20000100 <DPU_CONV>
     174:	001f0f13          	addi	t5,t5,1
     178:	01ee2023          	sw	t5,0(t3)
     17c:	fb5ff06f          	j	130 <loop1>

00000180 <intr_dwcalc_entry>:
     180:	00101397          	auipc	t2,0x101
     184:	4b038393          	addi	t2,t2,1200 # 101630 <intr_dwcalc_act>
     188:	01e3a023          	sw	t5,0(t2)
     18c:	20000e37          	lui	t3,0x20000
     190:	200e0e13          	addi	t3,t3,512 # 20000200 <DPU_DWCALC>
     194:	001f0f13          	addi	t5,t5,1
     198:	01ee2023          	sw	t5,0(t3)
     19c:	f95ff06f          	j	130 <loop1>

000001a0 <intr_dtrans_entry>:
     1a0:	00101397          	auipc	t2,0x101
     1a4:	49438393          	addi	t2,t2,1172 # 101634 <intr_dtrans_act>
     1a8:	01e3a023          	sw	t5,0(t2)
     1ac:	20000e37          	lui	t3,0x20000
     1b0:	300e0e13          	addi	t3,t3,768 # 20000300 <DPU_DTRANS>
     1b4:	001f0f13          	addi	t5,t5,1
     1b8:	01ee2023          	sw	t5,0(t3)
     1bc:	f75ff06f          	j	130 <loop1>

000001c0 <intr_ftrans_entry>:
     1c0:	00101397          	auipc	t2,0x101
     1c4:	47838393          	addi	t2,t2,1144 # 101638 <intr_ftrans_act>
     1c8:	01e3a023          	sw	t5,0(t2)
     1cc:	20000e37          	lui	t3,0x20000
     1d0:	400e0e13          	addi	t3,t3,1024 # 20000400 <DPU_FTRANS>
     1d4:	001f0f13          	addi	t5,t5,1
     1d8:	01ee2023          	sw	t5,0(t3)
     1dc:	f55ff06f          	j	130 <loop1>

000001e0 <intr_ldmr_entry>:
     1e0:	00101397          	auipc	t2,0x101
     1e4:	45c38393          	addi	t2,t2,1116 # 10163c <intr_ldmr_act>
     1e8:	01e3a023          	sw	t5,0(t2)
     1ec:	20000e37          	lui	t3,0x20000
     1f0:	500e0e13          	addi	t3,t3,1280 # 20000500 <DPU_LDMR>
     1f4:	001f0f13          	addi	t5,t5,1
     1f8:	01ee2023          	sw	t5,0(t3)
     1fc:	f35ff06f          	j	130 <loop1>

00000200 <intr_svmr_entry>:
     200:	00101397          	auipc	t2,0x101
     204:	44038393          	addi	t2,t2,1088 # 101640 <intr_svmr_act>
     208:	01e3a023          	sw	t5,0(t2)
     20c:	20000e37          	lui	t3,0x20000
     210:	600e0e13          	addi	t3,t3,1536 # 20000600 <DPU_SVMR>
     214:	001f0f13          	addi	t5,t5,1
     218:	01ee2023          	sw	t5,0(t3)
     21c:	f15ff06f          	j	130 <loop1>

00000220 <intr_resv0_entry>:
     220:	f11ff06f          	j	130 <loop1>
     224:	00000013          	nop
     228:	00000013          	nop
     22c:	00000013          	nop
     230:	00000013          	nop
     234:	00000013          	nop
     238:	00000013          	nop
     23c:	00000013          	nop

00000240 <intr_resv1_entry>:
     240:	ef1ff06f          	j	130 <loop1>
     244:	00000013          	nop
     248:	00000013          	nop
     24c:	00000013          	nop
     250:	00000013          	nop
     254:	00000013          	nop
     258:	00000013          	nop
     25c:	00000013          	nop

00000260 <intr_stcalc_entry>:
     260:	00101397          	auipc	t2,0x101
     264:	3e438393          	addi	t2,t2,996 # 101644 <intr_stcalc_act>
     268:	01e3a023          	sw	t5,0(t2)
     26c:	ec5ff06f          	j	130 <loop1>

00000270 <mint_exit>:
     270:	01812283          	lw	t0,24(sp)
     274:	01412303          	lw	t1,20(sp)
     278:	01012383          	lw	t2,16(sp)
     27c:	00c12e03          	lw	t3,12(sp)
     280:	00812e83          	lw	t4,8(sp)
     284:	00412f03          	lw	t5,4(sp)
     288:	01c10113          	addi	sp,sp,28
     28c:	0400000b          	0x400000b
	...

00000340 <main>:
    DDR_WT_BASE_ADDR,
    DDR_BS_BASE_ADDR
};

void main()
{
     340:	ff010113          	addi	sp,sp,-16
     344:	00112623          	sw	ra,12(sp)
     348:	00812423          	sw	s0,8(sp)
     34c:	01010413          	addi	s0,sp,16
    // initial interrupt configure
    init_intr();
     350:	701020ef          	jal	ra,3250 <init_intr>

    // config input/weight/bias base address
    if(PHASE_CONV1_IS_ACTIVE)
        g_dlctrl_param.dlctrl_fm_ddr_base_addr = DDR_CONV1_FM_ADDR;
     354:	001007b7          	lui	a5,0x100
     358:	00350737          	lui	a4,0x350
     35c:	0ae7ac23          	sw	a4,184(a5) # 1000b8 <g_dlctrl_param>
    else if(PHASE_BLK6_1_IS_ACTIVE)
        g_dlctrl_param.dlctrl_fm_ddr_base_addr = DDR_B6_1_FM_ADDR;
    else if(PHASE_CONVF_IS_ACTIVE)
        g_dlctrl_param.dlctrl_fm_ddr_base_addr = DDR_CONVF_FM_ADDR;

    dlctrl_set(&g_dlctrl_param);
     360:	001007b7          	lui	a5,0x100
     364:	0b878513          	addi	a0,a5,184 # 1000b8 <g_dlctrl_param>
     368:	649020ef          	jal	ra,31b0 <dlctrl_set>

    while (1)
    {
        // wait for start signal
        while(!intr_stcalc_act);
     36c:	00000013          	nop
     370:	001017b7          	lui	a5,0x101
     374:	6447a783          	lw	a5,1604(a5) # 101644 <intr_stcalc_act>
     378:	fe078ce3          	beqz	a5,370 <main+0x30>
        intr_stcalc_act = 0;
     37c:	001017b7          	lui	a5,0x101
     380:	6407a223          	sw	zero,1604(a5) # 101644 <intr_stcalc_act>

        // invoke shufflenet
        shufflenet_v2();
     384:	320020ef          	jal	ra,26a4 <shufflenet_v2>
        fshflg_ps();
     388:	6b9020ef          	jal	ra,3240 <fshflg_ps>
        while(!intr_stcalc_act);
     38c:	fe1ff06f          	j	36c <main+0x2c>

00000390 <conv1_pool1>:
// pc_svmr_param ofm_param;
// int conv_fm_height;
// int conv_pad_width;
// int pool_width;
void conv1_pool1()
{
     390:	fe010113          	addi	sp,sp,-32
     394:	00112e23          	sw	ra,28(sp)
     398:	00812c23          	sw	s0,24(sp)
     39c:	02010413          	addi	s0,sp,32
    int i;
    // save the svmr/ldmr parameters
    int ldmr_ddr_addr = ifm_param->ddr_addr;
     3a0:	001007b7          	lui	a5,0x100
     3a4:	03c7a783          	lw	a5,60(a5) # 10003c <ifm_param>
     3a8:	0007a783          	lw	a5,0(a5)
     3ac:	fef42623          	sw	a5,-20(s0)
    int svmr_ddr_addr = ofm_param->ddr_addr;
     3b0:	001007b7          	lui	a5,0x100
     3b4:	0247a783          	lw	a5,36(a5) # 100024 <ofm_param>
     3b8:	0007a783          	lw	a5,0(a5)
     3bc:	fef42423          	sw	a5,-24(s0)

    // initialize the index parameters
    ldmr_index = 1;
     3c0:	001017b7          	lui	a5,0x101
     3c4:	00100713          	li	a4,1
     3c8:	64e7a623          	sw	a4,1612(a5) # 10164c <ldmr_index>
    conv_line = 0;
     3cc:	001007b7          	lui	a5,0x100
     3d0:	0807ae23          	sw	zero,156(a5) # 10009c <conv_line>
    conv_ifm_index = 1;
     3d4:	001017b7          	lui	a5,0x101
     3d8:	00100713          	li	a4,1
     3dc:	64e7ac23          	sw	a4,1624(a5) # 101658 <conv_ifm_index>

    // initialize weight and bias data
    // load weight data
    ldmr_set(wt_conv_param);
     3e0:	001007b7          	lui	a5,0x100
     3e4:	0707a783          	lw	a5,112(a5) # 100070 <wt_conv_param>
     3e8:	00078513          	mv	a0,a5
     3ec:	4fd020ef          	jal	ra,30e8 <ldmr_set>
    ldmr_start();
     3f0:	521020ef          	jal	ra,3110 <ldmr_start>
    while(!ldmr_check());
     3f4:	00000013          	nop
     3f8:	52d020ef          	jal	ra,3124 <ldmr_check>
     3fc:	00050793          	mv	a5,a0
     400:	fe078ce3          	beqz	a5,3f8 <conv1_pool1+0x68>

    // load bias data
    ldmr_set(bias_conv_param);
     404:	001007b7          	lui	a5,0x100
     408:	0187a783          	lw	a5,24(a5) # 100018 <bias_conv_param>
     40c:	00078513          	mv	a0,a5
     410:	4d9020ef          	jal	ra,30e8 <ldmr_set>
    ldmr_start();
     414:	4fd020ef          	jal	ra,3110 <ldmr_start>
    while(!ldmr_check());
     418:	00000013          	nop
     41c:	509020ef          	jal	ra,3124 <ldmr_check>
     420:	00050793          	mv	a5,a0
     424:	fe078ce3          	beqz	a5,41c <conv1_pool1+0x8c>

    // generated instruction stream
    // ==================================================================
    // load ifm 0/1/2
    // ==================================================================
    ifm_param->mr_addr = fm_conv0_table_addr[1];
     428:	001007b7          	lui	a5,0x100
     42c:	03c7a783          	lw	a5,60(a5) # 10003c <ifm_param>
     430:	00100737          	lui	a4,0x100
     434:	15470713          	addi	a4,a4,340 # 100154 <fm_conv0_table_addr>
     438:	00472703          	lw	a4,4(a4)
     43c:	00e7a623          	sw	a4,12(a5)
    ifm_param->reoder_en = 1;
     440:	001007b7          	lui	a5,0x100
     444:	03c7a783          	lw	a5,60(a5) # 10003c <ifm_param>
     448:	00100713          	li	a4,1
     44c:	00e7a823          	sw	a4,16(a5)
    ldmr_set(ifm_param);
     450:	001007b7          	lui	a5,0x100
     454:	03c7a783          	lw	a5,60(a5) # 10003c <ifm_param>
     458:	00078513          	mv	a0,a5
     45c:	48d020ef          	jal	ra,30e8 <ldmr_set>
    ldmr_start();
     460:	4b1020ef          	jal	ra,3110 <ldmr_start>

    ifm_param->mr_addr = fm_conv0_table_addr[2];
     464:	001007b7          	lui	a5,0x100
     468:	03c7a783          	lw	a5,60(a5) # 10003c <ifm_param>
     46c:	00100737          	lui	a4,0x100
     470:	15470713          	addi	a4,a4,340 # 100154 <fm_conv0_table_addr>
     474:	00872703          	lw	a4,8(a4)
     478:	00e7a623          	sw	a4,12(a5)
    ifm_param->ddr_addr += (ifm_param->trans_len << 6);
     47c:	001007b7          	lui	a5,0x100
     480:	03c7a783          	lw	a5,60(a5) # 10003c <ifm_param>
     484:	0007a683          	lw	a3,0(a5)
     488:	001007b7          	lui	a5,0x100
     48c:	03c7a783          	lw	a5,60(a5) # 10003c <ifm_param>
     490:	0047a783          	lw	a5,4(a5)
     494:	00679713          	slli	a4,a5,0x6
     498:	001007b7          	lui	a5,0x100
     49c:	03c7a783          	lw	a5,60(a5) # 10003c <ifm_param>
     4a0:	00e68733          	add	a4,a3,a4
     4a4:	00e7a023          	sw	a4,0(a5)
    ldmr_set(ifm_param);
     4a8:	001007b7          	lui	a5,0x100
     4ac:	03c7a783          	lw	a5,60(a5) # 10003c <ifm_param>
     4b0:	00078513          	mv	a0,a5
     4b4:	435020ef          	jal	ra,30e8 <ldmr_set>
    while(!ldmr_check());
     4b8:	00000013          	nop
     4bc:	469020ef          	jal	ra,3124 <ldmr_check>
     4c0:	00050793          	mv	a5,a0
     4c4:	fe078ce3          	beqz	a5,4bc <conv1_pool1+0x12c>
    ldmr_start();
     4c8:	449020ef          	jal	ra,3110 <ldmr_start>

    ifm_param->mr_addr = fm_conv0_table_addr[3];
     4cc:	001007b7          	lui	a5,0x100
     4d0:	03c7a783          	lw	a5,60(a5) # 10003c <ifm_param>
     4d4:	00100737          	lui	a4,0x100
     4d8:	15470713          	addi	a4,a4,340 # 100154 <fm_conv0_table_addr>
     4dc:	00c72703          	lw	a4,12(a4)
     4e0:	00e7a623          	sw	a4,12(a5)
    ifm_param->ddr_addr += (ifm_param->trans_len << 6);
     4e4:	001007b7          	lui	a5,0x100
     4e8:	03c7a783          	lw	a5,60(a5) # 10003c <ifm_param>
     4ec:	0007a683          	lw	a3,0(a5)
     4f0:	001007b7          	lui	a5,0x100
     4f4:	03c7a783          	lw	a5,60(a5) # 10003c <ifm_param>
     4f8:	0047a783          	lw	a5,4(a5)
     4fc:	00679713          	slli	a4,a5,0x6
     500:	001007b7          	lui	a5,0x100
     504:	03c7a783          	lw	a5,60(a5) # 10003c <ifm_param>
     508:	00e68733          	add	a4,a3,a4
     50c:	00e7a023          	sw	a4,0(a5)
    ldmr_set(ifm_param);
     510:	001007b7          	lui	a5,0x100
     514:	03c7a783          	lw	a5,60(a5) # 10003c <ifm_param>
     518:	00078513          	mv	a0,a5
     51c:	3cd020ef          	jal	ra,30e8 <ldmr_set>
    while(!ldmr_check());
     520:	00000013          	nop
     524:	401020ef          	jal	ra,3124 <ldmr_check>
     528:	00050793          	mv	a5,a0
     52c:	fe078ce3          	beqz	a5,524 <conv1_pool1+0x194>
    ldmr_start();
     530:	3e1020ef          	jal	ra,3110 <ldmr_start>

    // configure param of ldmr
    ldmr_index = 4;
     534:	001017b7          	lui	a5,0x101
     538:	00400713          	li	a4,4
     53c:	64e7a623          	sw	a4,1612(a5) # 10164c <ldmr_index>
    ifm_param->mr_addr = fm_conv0_table_addr[4];
     540:	001007b7          	lui	a5,0x100
     544:	03c7a783          	lw	a5,60(a5) # 10003c <ifm_param>
     548:	00100737          	lui	a4,0x100
     54c:	15470713          	addi	a4,a4,340 # 100154 <fm_conv0_table_addr>
     550:	01072703          	lw	a4,16(a4)
     554:	00e7a623          	sw	a4,12(a5)
    ifm_param->ddr_addr += (ifm_param->trans_len << 6);
     558:	001007b7          	lui	a5,0x100
     55c:	03c7a783          	lw	a5,60(a5) # 10003c <ifm_param>
     560:	0007a683          	lw	a3,0(a5)
     564:	001007b7          	lui	a5,0x100
     568:	03c7a783          	lw	a5,60(a5) # 10003c <ifm_param>
     56c:	0047a783          	lw	a5,4(a5)
     570:	00679713          	slli	a4,a5,0x6
     574:	001007b7          	lui	a5,0x100
     578:	03c7a783          	lw	a5,60(a5) # 10003c <ifm_param>
     57c:	00e68733          	add	a4,a3,a4
     580:	00e7a023          	sw	a4,0(a5)
    ldmr_set(ifm_param);
     584:	001007b7          	lui	a5,0x100
     588:	03c7a783          	lw	a5,60(a5) # 10003c <ifm_param>
     58c:	00078513          	mv	a0,a5
     590:	359020ef          	jal	ra,30e8 <ldmr_set>

    // confiture param of conv1
    conv_ifm_index = 2;
     594:	001017b7          	lui	a5,0x101
     598:	00200713          	li	a4,2
     59c:	64e7ac23          	sw	a4,1624(a5) # 101658 <conv_ifm_index>
    conv_param->ifm_addr0 = fm_conv0_table_addr[1];
     5a0:	001007b7          	lui	a5,0x100
     5a4:	0387a783          	lw	a5,56(a5) # 100038 <conv_param>
     5a8:	00100737          	lui	a4,0x100
     5ac:	15470713          	addi	a4,a4,340 # 100154 <fm_conv0_table_addr>
     5b0:	00472703          	lw	a4,4(a4)
     5b4:	00e7aa23          	sw	a4,20(a5)
    conv_param->ifm_addr1 = fm_conv0_table_addr[2];
     5b8:	001007b7          	lui	a5,0x100
     5bc:	0387a783          	lw	a5,56(a5) # 100038 <conv_param>
     5c0:	00100737          	lui	a4,0x100
     5c4:	15470713          	addi	a4,a4,340 # 100154 <fm_conv0_table_addr>
     5c8:	00872703          	lw	a4,8(a4)
     5cc:	00e7ac23          	sw	a4,24(a5)
    conv_param->ifm_addr2 = fm_conv0_table_addr[3];
     5d0:	001007b7          	lui	a5,0x100
     5d4:	0387a783          	lw	a5,56(a5) # 100038 <conv_param>
     5d8:	00100737          	lui	a4,0x100
     5dc:	15470713          	addi	a4,a4,340 # 100154 <fm_conv0_table_addr>
     5e0:	00c72703          	lw	a4,12(a4)
     5e4:	00e7ae23          	sw	a4,28(a5)
    conv_param->ofm_addr = fm_conv1_table_addr[1];
     5e8:	001007b7          	lui	a5,0x100
     5ec:	0387a783          	lw	a5,56(a5) # 100038 <conv_param>
     5f0:	00100737          	lui	a4,0x100
     5f4:	17070713          	addi	a4,a4,368 # 100170 <fm_conv1_table_addr>
     5f8:	00472703          	lw	a4,4(a4)
     5fc:	00e7a823          	sw	a4,16(a5)
    conv_set(conv_param);
     600:	001007b7          	lui	a5,0x100
     604:	0387a783          	lw	a5,56(a5) # 100038 <conv_param>
     608:	00078513          	mv	a0,a5
     60c:	145020ef          	jal	ra,2f50 <conv_set>

    // configure param of pool1
    pool1_param->ifm_addr0 = fm_conv1_table_addr[1];
     610:	001007b7          	lui	a5,0x100
     614:	0147a783          	lw	a5,20(a5) # 100014 <pool1_param>
     618:	00100737          	lui	a4,0x100
     61c:	17070713          	addi	a4,a4,368 # 100170 <fm_conv1_table_addr>
     620:	00472703          	lw	a4,4(a4)
     624:	00e7aa23          	sw	a4,20(a5)
    pool1_param->ifm_addr1 = fm_conv1_table_addr[2];
     628:	001007b7          	lui	a5,0x100
     62c:	0147a783          	lw	a5,20(a5) # 100014 <pool1_param>
     630:	00100737          	lui	a4,0x100
     634:	17070713          	addi	a4,a4,368 # 100170 <fm_conv1_table_addr>
     638:	00872703          	lw	a4,8(a4)
     63c:	00e7ac23          	sw	a4,24(a5)
    pool1_param->ofm_addr = fm_conv2_table_addr;
     640:	001007b7          	lui	a5,0x100
     644:	0147a783          	lw	a5,20(a5) # 100014 <pool1_param>
     648:	00101737          	lui	a4,0x101
     64c:	64872703          	lw	a4,1608(a4) # 101648 <fm_conv2_table_addr>
     650:	00e7a823          	sw	a4,16(a5)
    dwcalc_set(pool1_param);
     654:	001007b7          	lui	a5,0x100
     658:	0147a783          	lw	a5,20(a5) # 100014 <pool1_param>
     65c:	00078513          	mv	a0,a5
     660:	159020ef          	jal	ra,2fb8 <dwcalc_set>

    // configure param of svmr
    ofm_param->mr_addr = fm_conv2_table_addr;
     664:	001007b7          	lui	a5,0x100
     668:	0247a783          	lw	a5,36(a5) # 100024 <ofm_param>
     66c:	00101737          	lui	a4,0x101
     670:	64872703          	lw	a4,1608(a4) # 101648 <fm_conv2_table_addr>
     674:	00e7a623          	sw	a4,12(a5)
    svmr_set(ofm_param);
     678:	001007b7          	lui	a5,0x100
     67c:	0247a783          	lw	a5,36(a5) # 100024 <ofm_param>
     680:	00078513          	mv	a0,a5
     684:	2c9020ef          	jal	ra,314c <svmr_set>
    while(!ldmr_check());
     688:	00000013          	nop
     68c:	299020ef          	jal	ra,3124 <ldmr_check>
     690:	00050793          	mv	a5,a0
     694:	fe078ce3          	beqz	a5,68c <conv1_pool1+0x2fc>

    // ==================================================================
    // loop
    // ==================================================================
    for(conv_line = 0; conv_line < conv_fm_height; conv_line += 4)
     698:	001007b7          	lui	a5,0x100
     69c:	0807ae23          	sw	zero,156(a5) # 10009c <conv_line>
     6a0:	67c0006f          	j	d1c <conv1_pool1+0x98c>
    {
        // ==================================================================
        // Phase 0: pool 
        // ==================================================================
        if(conv_line != 0)
     6a4:	001007b7          	lui	a5,0x100
     6a8:	09c7a783          	lw	a5,156(a5) # 10009c <conv_line>
     6ac:	00078463          	beqz	a5,6b4 <conv1_pool1+0x324>
        {
            dwcalc_start();
     6b0:	131020ef          	jal	ra,2fe0 <dwcalc_start>
        }

        // ==================================================================
        // Phase 0: load ifm [conv_line + 3]
        // ==================================================================
        if(conv_line+3 < conv_fm_height)
     6b4:	001007b7          	lui	a5,0x100
     6b8:	09c7a783          	lw	a5,156(a5) # 10009c <conv_line>
     6bc:	00378713          	addi	a4,a5,3
     6c0:	001007b7          	lui	a5,0x100
     6c4:	0547a783          	lw	a5,84(a5) # 100054 <conv_fm_height>
     6c8:	0af75263          	ble	a5,a4,76c <conv1_pool1+0x3dc>
        {
            ldmr_start();
     6cc:	245020ef          	jal	ra,3110 <ldmr_start>
            // prepare params for next ldmr
            ldmr_index++;
     6d0:	001017b7          	lui	a5,0x101
     6d4:	64c7a783          	lw	a5,1612(a5) # 10164c <ldmr_index>
     6d8:	00178713          	addi	a4,a5,1
     6dc:	001017b7          	lui	a5,0x101
     6e0:	64e7a623          	sw	a4,1612(a5) # 10164c <ldmr_index>
            if(ldmr_index > 5) ldmr_index -= 5;
     6e4:	001017b7          	lui	a5,0x101
     6e8:	64c7a703          	lw	a4,1612(a5) # 10164c <ldmr_index>
     6ec:	00500793          	li	a5,5
     6f0:	00e7dc63          	ble	a4,a5,708 <conv1_pool1+0x378>
     6f4:	001017b7          	lui	a5,0x101
     6f8:	64c7a783          	lw	a5,1612(a5) # 10164c <ldmr_index>
     6fc:	ffb78713          	addi	a4,a5,-5
     700:	001017b7          	lui	a5,0x101
     704:	64e7a623          	sw	a4,1612(a5) # 10164c <ldmr_index>
            ifm_param->mr_addr = fm_conv0_table_addr[ldmr_index];
     708:	001017b7          	lui	a5,0x101
     70c:	64c7a683          	lw	a3,1612(a5) # 10164c <ldmr_index>
     710:	001007b7          	lui	a5,0x100
     714:	03c7a783          	lw	a5,60(a5) # 10003c <ifm_param>
     718:	00100737          	lui	a4,0x100
     71c:	00269693          	slli	a3,a3,0x2
     720:	15470713          	addi	a4,a4,340 # 100154 <fm_conv0_table_addr>
     724:	00e68733          	add	a4,a3,a4
     728:	00072703          	lw	a4,0(a4)
     72c:	00e7a623          	sw	a4,12(a5)
            ifm_param->ddr_addr += (ifm_param->trans_len << 6);
     730:	001007b7          	lui	a5,0x100
     734:	03c7a783          	lw	a5,60(a5) # 10003c <ifm_param>
     738:	0007a683          	lw	a3,0(a5)
     73c:	001007b7          	lui	a5,0x100
     740:	03c7a783          	lw	a5,60(a5) # 10003c <ifm_param>
     744:	0047a783          	lw	a5,4(a5)
     748:	00679713          	slli	a4,a5,0x6
     74c:	001007b7          	lui	a5,0x100
     750:	03c7a783          	lw	a5,60(a5) # 10003c <ifm_param>
     754:	00e68733          	add	a4,a3,a4
     758:	00e7a023          	sw	a4,0(a5)
            ldmr_set(ifm_param);
     75c:	001007b7          	lui	a5,0x100
     760:	03c7a783          	lw	a5,60(a5) # 10003c <ifm_param>
     764:	00078513          	mv	a0,a5
     768:	181020ef          	jal	ra,30e8 <ldmr_set>
        }

        // ==================================================================
        // Phase 0: conv [conv_line]
        // ==================================================================
        conv_start();
     76c:	00d020ef          	jal	ra,2f78 <conv_start>
        // prepare params for next conv
        conv_ifm_index += 2;
     770:	001017b7          	lui	a5,0x101
     774:	6587a783          	lw	a5,1624(a5) # 101658 <conv_ifm_index>
     778:	00278713          	addi	a4,a5,2
     77c:	001017b7          	lui	a5,0x101
     780:	64e7ac23          	sw	a4,1624(a5) # 101658 <conv_ifm_index>
        if(conv_ifm_index > 5) conv_ifm_index -= 5;
     784:	001017b7          	lui	a5,0x101
     788:	6587a703          	lw	a4,1624(a5) # 101658 <conv_ifm_index>
     78c:	00500793          	li	a5,5
     790:	00e7dc63          	ble	a4,a5,7a8 <conv1_pool1+0x418>
     794:	001017b7          	lui	a5,0x101
     798:	6587a783          	lw	a5,1624(a5) # 101658 <conv_ifm_index>
     79c:	ffb78713          	addi	a4,a5,-5
     7a0:	001017b7          	lui	a5,0x101
     7a4:	64e7ac23          	sw	a4,1624(a5) # 101658 <conv_ifm_index>
        conv_param->ifm_addr0 = fm_conv0_table_addr[conv_ifm_index-1];
     7a8:	001017b7          	lui	a5,0x101
     7ac:	6587a783          	lw	a5,1624(a5) # 101658 <conv_ifm_index>
     7b0:	fff78693          	addi	a3,a5,-1
     7b4:	001007b7          	lui	a5,0x100
     7b8:	0387a783          	lw	a5,56(a5) # 100038 <conv_param>
     7bc:	00100737          	lui	a4,0x100
     7c0:	00269693          	slli	a3,a3,0x2
     7c4:	15470713          	addi	a4,a4,340 # 100154 <fm_conv0_table_addr>
     7c8:	00e68733          	add	a4,a3,a4
     7cc:	00072703          	lw	a4,0(a4)
     7d0:	00e7aa23          	sw	a4,20(a5)
        conv_param->ifm_addr1 = fm_conv0_table_addr[conv_ifm_index];
     7d4:	001017b7          	lui	a5,0x101
     7d8:	6587a683          	lw	a3,1624(a5) # 101658 <conv_ifm_index>
     7dc:	001007b7          	lui	a5,0x100
     7e0:	0387a783          	lw	a5,56(a5) # 100038 <conv_param>
     7e4:	00100737          	lui	a4,0x100
     7e8:	00269693          	slli	a3,a3,0x2
     7ec:	15470713          	addi	a4,a4,340 # 100154 <fm_conv0_table_addr>
     7f0:	00e68733          	add	a4,a3,a4
     7f4:	00072703          	lw	a4,0(a4)
     7f8:	00e7ac23          	sw	a4,24(a5)
        conv_param->ifm_addr2 = fm_conv0_table_addr[conv_ifm_index+1];
     7fc:	001017b7          	lui	a5,0x101
     800:	6587a783          	lw	a5,1624(a5) # 101658 <conv_ifm_index>
     804:	00178693          	addi	a3,a5,1
     808:	001007b7          	lui	a5,0x100
     80c:	0387a783          	lw	a5,56(a5) # 100038 <conv_param>
     810:	00100737          	lui	a4,0x100
     814:	00269693          	slli	a3,a3,0x2
     818:	15470713          	addi	a4,a4,340 # 100154 <fm_conv0_table_addr>
     81c:	00e68733          	add	a4,a3,a4
     820:	00072703          	lw	a4,0(a4)
     824:	00e7ae23          	sw	a4,28(a5)
        if(conv_line+5 > conv_fm_height)
     828:	001007b7          	lui	a5,0x100
     82c:	09c7a783          	lw	a5,156(a5) # 10009c <conv_line>
     830:	00578713          	addi	a4,a5,5
     834:	001007b7          	lui	a5,0x100
     838:	0547a783          	lw	a5,84(a5) # 100054 <conv_fm_height>
     83c:	00e7dc63          	ble	a4,a5,854 <conv1_pool1+0x4c4>
            conv_param->ifm_addr2 = 0x3e003e00;
     840:	001007b7          	lui	a5,0x100
     844:	0387a783          	lw	a5,56(a5) # 100038 <conv_param>
     848:	3e004737          	lui	a4,0x3e004
     84c:	e0070713          	addi	a4,a4,-512 # 3e003e00 <PS_CTRL_IF+0x1e001e00>
     850:	00e7ae23          	sw	a4,28(a5)
        conv_param->ofm_addr = fm_conv1_table_addr[2];
     854:	001007b7          	lui	a5,0x100
     858:	0387a783          	lw	a5,56(a5) # 100038 <conv_param>
     85c:	00100737          	lui	a4,0x100
     860:	17070713          	addi	a4,a4,368 # 100170 <fm_conv1_table_addr>
     864:	00872703          	lw	a4,8(a4)
     868:	00e7a823          	sw	a4,16(a5)
        conv_set(conv_param);
     86c:	001007b7          	lui	a5,0x100
     870:	0387a783          	lw	a5,56(a5) # 100038 <conv_param>
     874:	00078513          	mv	a0,a5
     878:	6d8020ef          	jal	ra,2f50 <conv_set>

        if(conv_line+3 < conv_fm_height)
     87c:	001007b7          	lui	a5,0x100
     880:	09c7a783          	lw	a5,156(a5) # 10009c <conv_line>
     884:	00378713          	addi	a4,a5,3
     888:	001007b7          	lui	a5,0x100
     88c:	0547a783          	lw	a5,84(a5) # 100054 <conv_fm_height>
     890:	00f75a63          	ble	a5,a4,8a4 <conv1_pool1+0x514>
        {
            while(!ldmr_check());
     894:	00000013          	nop
     898:	08d020ef          	jal	ra,3124 <ldmr_check>
     89c:	00050793          	mv	a5,a0
     8a0:	fe078ce3          	beqz	a5,898 <conv1_pool1+0x508>
        }
        // ==================================================================
        // Phase 1: load ifm [conv_line + 4]
        // ==================================================================
        if(conv_line+4 < conv_fm_height)
     8a4:	001007b7          	lui	a5,0x100
     8a8:	09c7a783          	lw	a5,156(a5) # 10009c <conv_line>
     8ac:	00478713          	addi	a4,a5,4
     8b0:	001007b7          	lui	a5,0x100
     8b4:	0547a783          	lw	a5,84(a5) # 100054 <conv_fm_height>
     8b8:	0af75263          	ble	a5,a4,95c <conv1_pool1+0x5cc>
        {
            ldmr_start();
     8bc:	055020ef          	jal	ra,3110 <ldmr_start>
            // prepare params for next ldmr
            ldmr_index++;
     8c0:	001017b7          	lui	a5,0x101
     8c4:	64c7a783          	lw	a5,1612(a5) # 10164c <ldmr_index>
     8c8:	00178713          	addi	a4,a5,1
     8cc:	001017b7          	lui	a5,0x101
     8d0:	64e7a623          	sw	a4,1612(a5) # 10164c <ldmr_index>
            if(ldmr_index > 5) ldmr_index -= 5;
     8d4:	001017b7          	lui	a5,0x101
     8d8:	64c7a703          	lw	a4,1612(a5) # 10164c <ldmr_index>
     8dc:	00500793          	li	a5,5
     8e0:	00e7dc63          	ble	a4,a5,8f8 <conv1_pool1+0x568>
     8e4:	001017b7          	lui	a5,0x101
     8e8:	64c7a783          	lw	a5,1612(a5) # 10164c <ldmr_index>
     8ec:	ffb78713          	addi	a4,a5,-5
     8f0:	001017b7          	lui	a5,0x101
     8f4:	64e7a623          	sw	a4,1612(a5) # 10164c <ldmr_index>
            ifm_param->mr_addr = fm_conv0_table_addr[ldmr_index];
     8f8:	001017b7          	lui	a5,0x101
     8fc:	64c7a683          	lw	a3,1612(a5) # 10164c <ldmr_index>
     900:	001007b7          	lui	a5,0x100
     904:	03c7a783          	lw	a5,60(a5) # 10003c <ifm_param>
     908:	00100737          	lui	a4,0x100
     90c:	00269693          	slli	a3,a3,0x2
     910:	15470713          	addi	a4,a4,340 # 100154 <fm_conv0_table_addr>
     914:	00e68733          	add	a4,a3,a4
     918:	00072703          	lw	a4,0(a4)
     91c:	00e7a623          	sw	a4,12(a5)
            ifm_param->ddr_addr += (ifm_param->trans_len << 6);
     920:	001007b7          	lui	a5,0x100
     924:	03c7a783          	lw	a5,60(a5) # 10003c <ifm_param>
     928:	0007a683          	lw	a3,0(a5)
     92c:	001007b7          	lui	a5,0x100
     930:	03c7a783          	lw	a5,60(a5) # 10003c <ifm_param>
     934:	0047a783          	lw	a5,4(a5)
     938:	00679713          	slli	a4,a5,0x6
     93c:	001007b7          	lui	a5,0x100
     940:	03c7a783          	lw	a5,60(a5) # 10003c <ifm_param>
     944:	00e68733          	add	a4,a3,a4
     948:	00e7a023          	sw	a4,0(a5)
            ldmr_set(ifm_param);
     94c:	001007b7          	lui	a5,0x100
     950:	03c7a783          	lw	a5,60(a5) # 10003c <ifm_param>
     954:	00078513          	mv	a0,a5
     958:	790020ef          	jal	ra,30e8 <ldmr_set>
        }

        if(conv_line != 0)
     95c:	001007b7          	lui	a5,0x100
     960:	09c7a783          	lw	a5,156(a5) # 10009c <conv_line>
     964:	00078e63          	beqz	a5,980 <conv1_pool1+0x5f0>
        {
            while(!intr_dwcalc_act);
     968:	00000013          	nop
     96c:	001017b7          	lui	a5,0x101
     970:	6307a783          	lw	a5,1584(a5) # 101630 <intr_dwcalc_act>
     974:	fe078ce3          	beqz	a5,96c <conv1_pool1+0x5dc>
            intr_dwcalc_act = 0;
     978:	001017b7          	lui	a5,0x101
     97c:	6207a823          	sw	zero,1584(a5) # 101630 <intr_dwcalc_act>
        }
        while(!intr_conv_act);
     980:	00000013          	nop
     984:	001017b7          	lui	a5,0x101
     988:	62c7a783          	lw	a5,1580(a5) # 10162c <intr_conv_act>
     98c:	fe078ce3          	beqz	a5,984 <conv1_pool1+0x5f4>
        intr_conv_act = 0;
     990:	001017b7          	lui	a5,0x101
     994:	6207a623          	sw	zero,1580(a5) # 10162c <intr_conv_act>
        if(conv_line+4 < conv_fm_height)
     998:	001007b7          	lui	a5,0x100
     99c:	09c7a783          	lw	a5,156(a5) # 10009c <conv_line>
     9a0:	00478713          	addi	a4,a5,4
     9a4:	001007b7          	lui	a5,0x100
     9a8:	0547a783          	lw	a5,84(a5) # 100054 <conv_fm_height>
     9ac:	00f75a63          	ble	a5,a4,9c0 <conv1_pool1+0x630>
        {
            while(!ldmr_check());
     9b0:	00000013          	nop
     9b4:	770020ef          	jal	ra,3124 <ldmr_check>
     9b8:	00050793          	mv	a5,a0
     9bc:	fe078ce3          	beqz	a5,9b4 <conv1_pool1+0x624>
        }

        // ==================================================================
        // Phase 2: save 
        // ==================================================================
        if(conv_line != 0)
     9c0:	001007b7          	lui	a5,0x100
     9c4:	09c7a783          	lw	a5,156(a5) # 10009c <conv_line>
     9c8:	00078463          	beqz	a5,9d0 <conv1_pool1+0x640>
        {
            svmr_start();
     9cc:	7a8020ef          	jal	ra,3174 <svmr_start>
        }

        // ==================================================================
        // Phase 2: load ifm [conv_line + 5]
        // ==================================================================
        if(conv_line+5 < conv_fm_height)
     9d0:	001007b7          	lui	a5,0x100
     9d4:	09c7a783          	lw	a5,156(a5) # 10009c <conv_line>
     9d8:	00578713          	addi	a4,a5,5
     9dc:	001007b7          	lui	a5,0x100
     9e0:	0547a783          	lw	a5,84(a5) # 100054 <conv_fm_height>
     9e4:	00f75463          	ble	a5,a4,9ec <conv1_pool1+0x65c>
        {
            ldmr_start();
     9e8:	728020ef          	jal	ra,3110 <ldmr_start>
        }

        // ==================================================================
        // Phase 2: conv [conv_line + 2]
        // ==================================================================
        conv_start();
     9ec:	58c020ef          	jal	ra,2f78 <conv_start>
        // set conv parameters for next command
        if(conv_line != 0)
     9f0:	001007b7          	lui	a5,0x100
     9f4:	09c7a783          	lw	a5,156(a5) # 10009c <conv_line>
     9f8:	04078063          	beqz	a5,a38 <conv1_pool1+0x6a8>
        {
            ofm_param->ddr_addr += (ofm_param->trans_len << 6);
     9fc:	001007b7          	lui	a5,0x100
     a00:	0247a783          	lw	a5,36(a5) # 100024 <ofm_param>
     a04:	0007a683          	lw	a3,0(a5)
     a08:	001007b7          	lui	a5,0x100
     a0c:	0247a783          	lw	a5,36(a5) # 100024 <ofm_param>
     a10:	0047a783          	lw	a5,4(a5)
     a14:	00679713          	slli	a4,a5,0x6
     a18:	001007b7          	lui	a5,0x100
     a1c:	0247a783          	lw	a5,36(a5) # 100024 <ofm_param>
     a20:	00e68733          	add	a4,a3,a4
     a24:	00e7a023          	sw	a4,0(a5)
            svmr_set(ofm_param);
     a28:	001007b7          	lui	a5,0x100
     a2c:	0247a783          	lw	a5,36(a5) # 100024 <ofm_param>
     a30:	00078513          	mv	a0,a5
     a34:	718020ef          	jal	ra,314c <svmr_set>
        }
        // set ldmr params for next command
        if(conv_line+5 < conv_fm_height)
     a38:	001007b7          	lui	a5,0x100
     a3c:	09c7a783          	lw	a5,156(a5) # 10009c <conv_line>
     a40:	00578713          	addi	a4,a5,5
     a44:	001007b7          	lui	a5,0x100
     a48:	0547a783          	lw	a5,84(a5) # 100054 <conv_fm_height>
     a4c:	0af75063          	ble	a5,a4,aec <conv1_pool1+0x75c>
        {
            ldmr_index++;
     a50:	001017b7          	lui	a5,0x101
     a54:	64c7a783          	lw	a5,1612(a5) # 10164c <ldmr_index>
     a58:	00178713          	addi	a4,a5,1
     a5c:	001017b7          	lui	a5,0x101
     a60:	64e7a623          	sw	a4,1612(a5) # 10164c <ldmr_index>
            if(ldmr_index > 5) ldmr_index -= 5;
     a64:	001017b7          	lui	a5,0x101
     a68:	64c7a703          	lw	a4,1612(a5) # 10164c <ldmr_index>
     a6c:	00500793          	li	a5,5
     a70:	00e7dc63          	ble	a4,a5,a88 <conv1_pool1+0x6f8>
     a74:	001017b7          	lui	a5,0x101
     a78:	64c7a783          	lw	a5,1612(a5) # 10164c <ldmr_index>
     a7c:	ffb78713          	addi	a4,a5,-5
     a80:	001017b7          	lui	a5,0x101
     a84:	64e7a623          	sw	a4,1612(a5) # 10164c <ldmr_index>
            ifm_param->mr_addr = fm_conv0_table_addr[ldmr_index];
     a88:	001017b7          	lui	a5,0x101
     a8c:	64c7a683          	lw	a3,1612(a5) # 10164c <ldmr_index>
     a90:	001007b7          	lui	a5,0x100
     a94:	03c7a783          	lw	a5,60(a5) # 10003c <ifm_param>
     a98:	00100737          	lui	a4,0x100
     a9c:	00269693          	slli	a3,a3,0x2
     aa0:	15470713          	addi	a4,a4,340 # 100154 <fm_conv0_table_addr>
     aa4:	00e68733          	add	a4,a3,a4
     aa8:	00072703          	lw	a4,0(a4)
     aac:	00e7a623          	sw	a4,12(a5)
            ifm_param->ddr_addr += (ifm_param->trans_len << 6);
     ab0:	001007b7          	lui	a5,0x100
     ab4:	03c7a783          	lw	a5,60(a5) # 10003c <ifm_param>
     ab8:	0007a683          	lw	a3,0(a5)
     abc:	001007b7          	lui	a5,0x100
     ac0:	03c7a783          	lw	a5,60(a5) # 10003c <ifm_param>
     ac4:	0047a783          	lw	a5,4(a5)
     ac8:	00679713          	slli	a4,a5,0x6
     acc:	001007b7          	lui	a5,0x100
     ad0:	03c7a783          	lw	a5,60(a5) # 10003c <ifm_param>
     ad4:	00e68733          	add	a4,a3,a4
     ad8:	00e7a023          	sw	a4,0(a5)
            ldmr_set(ifm_param);
     adc:	001007b7          	lui	a5,0x100
     ae0:	03c7a783          	lw	a5,60(a5) # 10003c <ifm_param>
     ae4:	00078513          	mv	a0,a5
     ae8:	600020ef          	jal	ra,30e8 <ldmr_set>
        }

        if(conv_line+5 < conv_fm_height)
     aec:	001007b7          	lui	a5,0x100
     af0:	09c7a783          	lw	a5,156(a5) # 10009c <conv_line>
     af4:	00578713          	addi	a4,a5,5
     af8:	001007b7          	lui	a5,0x100
     afc:	0547a783          	lw	a5,84(a5) # 100054 <conv_fm_height>
     b00:	00f75a63          	ble	a5,a4,b14 <conv1_pool1+0x784>
        {
            while(!ldmr_check());
     b04:	00000013          	nop
     b08:	61c020ef          	jal	ra,3124 <ldmr_check>
     b0c:	00050793          	mv	a5,a0
     b10:	fe078ce3          	beqz	a5,b08 <conv1_pool1+0x778>
        }

        // ==================================================================
        // Phase 3: load ifm [conv_line + 6]
        // ==================================================================
        if(conv_line+6 < conv_fm_height)
     b14:	001007b7          	lui	a5,0x100
     b18:	09c7a783          	lw	a5,156(a5) # 10009c <conv_line>
     b1c:	00678713          	addi	a4,a5,6
     b20:	001007b7          	lui	a5,0x100
     b24:	0547a783          	lw	a5,84(a5) # 100054 <conv_fm_height>
     b28:	0af75263          	ble	a5,a4,bcc <conv1_pool1+0x83c>
        {
            ldmr_start();
     b2c:	5e4020ef          	jal	ra,3110 <ldmr_start>
            ldmr_index++;
     b30:	001017b7          	lui	a5,0x101
     b34:	64c7a783          	lw	a5,1612(a5) # 10164c <ldmr_index>
     b38:	00178713          	addi	a4,a5,1
     b3c:	001017b7          	lui	a5,0x101
     b40:	64e7a623          	sw	a4,1612(a5) # 10164c <ldmr_index>
            if(ldmr_index > 5) ldmr_index -= 5;
     b44:	001017b7          	lui	a5,0x101
     b48:	64c7a703          	lw	a4,1612(a5) # 10164c <ldmr_index>
     b4c:	00500793          	li	a5,5
     b50:	00e7dc63          	ble	a4,a5,b68 <conv1_pool1+0x7d8>
     b54:	001017b7          	lui	a5,0x101
     b58:	64c7a783          	lw	a5,1612(a5) # 10164c <ldmr_index>
     b5c:	ffb78713          	addi	a4,a5,-5
     b60:	001017b7          	lui	a5,0x101
     b64:	64e7a623          	sw	a4,1612(a5) # 10164c <ldmr_index>
            ifm_param->mr_addr = fm_conv0_table_addr[ldmr_index];
     b68:	001017b7          	lui	a5,0x101
     b6c:	64c7a683          	lw	a3,1612(a5) # 10164c <ldmr_index>
     b70:	001007b7          	lui	a5,0x100
     b74:	03c7a783          	lw	a5,60(a5) # 10003c <ifm_param>
     b78:	00100737          	lui	a4,0x100
     b7c:	00269693          	slli	a3,a3,0x2
     b80:	15470713          	addi	a4,a4,340 # 100154 <fm_conv0_table_addr>
     b84:	00e68733          	add	a4,a3,a4
     b88:	00072703          	lw	a4,0(a4)
     b8c:	00e7a623          	sw	a4,12(a5)
            ifm_param->ddr_addr += (ifm_param->trans_len << 6);
     b90:	001007b7          	lui	a5,0x100
     b94:	03c7a783          	lw	a5,60(a5) # 10003c <ifm_param>
     b98:	0007a683          	lw	a3,0(a5)
     b9c:	001007b7          	lui	a5,0x100
     ba0:	03c7a783          	lw	a5,60(a5) # 10003c <ifm_param>
     ba4:	0047a783          	lw	a5,4(a5)
     ba8:	00679713          	slli	a4,a5,0x6
     bac:	001007b7          	lui	a5,0x100
     bb0:	03c7a783          	lw	a5,60(a5) # 10003c <ifm_param>
     bb4:	00e68733          	add	a4,a3,a4
     bb8:	00e7a023          	sw	a4,0(a5)
            ldmr_set(ifm_param);
     bbc:	001007b7          	lui	a5,0x100
     bc0:	03c7a783          	lw	a5,60(a5) # 10003c <ifm_param>
     bc4:	00078513          	mv	a0,a5
     bc8:	520020ef          	jal	ra,30e8 <ldmr_set>
        }

        // prepare conv params for next conv
        conv_ifm_index += 2;
     bcc:	001017b7          	lui	a5,0x101
     bd0:	6587a783          	lw	a5,1624(a5) # 101658 <conv_ifm_index>
     bd4:	00278713          	addi	a4,a5,2
     bd8:	001017b7          	lui	a5,0x101
     bdc:	64e7ac23          	sw	a4,1624(a5) # 101658 <conv_ifm_index>
        if(conv_ifm_index > 5) conv_ifm_index -= 5;
     be0:	001017b7          	lui	a5,0x101
     be4:	6587a703          	lw	a4,1624(a5) # 101658 <conv_ifm_index>
     be8:	00500793          	li	a5,5
     bec:	00e7dc63          	ble	a4,a5,c04 <conv1_pool1+0x874>
     bf0:	001017b7          	lui	a5,0x101
     bf4:	6587a783          	lw	a5,1624(a5) # 101658 <conv_ifm_index>
     bf8:	ffb78713          	addi	a4,a5,-5
     bfc:	001017b7          	lui	a5,0x101
     c00:	64e7ac23          	sw	a4,1624(a5) # 101658 <conv_ifm_index>
        conv_param->ifm_addr0 = fm_conv0_table_addr[conv_ifm_index-1];
     c04:	001017b7          	lui	a5,0x101
     c08:	6587a783          	lw	a5,1624(a5) # 101658 <conv_ifm_index>
     c0c:	fff78693          	addi	a3,a5,-1
     c10:	001007b7          	lui	a5,0x100
     c14:	0387a783          	lw	a5,56(a5) # 100038 <conv_param>
     c18:	00100737          	lui	a4,0x100
     c1c:	00269693          	slli	a3,a3,0x2
     c20:	15470713          	addi	a4,a4,340 # 100154 <fm_conv0_table_addr>
     c24:	00e68733          	add	a4,a3,a4
     c28:	00072703          	lw	a4,0(a4)
     c2c:	00e7aa23          	sw	a4,20(a5)
        conv_param->ifm_addr1 = fm_conv0_table_addr[conv_ifm_index];
     c30:	001017b7          	lui	a5,0x101
     c34:	6587a683          	lw	a3,1624(a5) # 101658 <conv_ifm_index>
     c38:	001007b7          	lui	a5,0x100
     c3c:	0387a783          	lw	a5,56(a5) # 100038 <conv_param>
     c40:	00100737          	lui	a4,0x100
     c44:	00269693          	slli	a3,a3,0x2
     c48:	15470713          	addi	a4,a4,340 # 100154 <fm_conv0_table_addr>
     c4c:	00e68733          	add	a4,a3,a4
     c50:	00072703          	lw	a4,0(a4)
     c54:	00e7ac23          	sw	a4,24(a5)
        conv_param->ifm_addr2 = fm_conv0_table_addr[conv_ifm_index+1];
     c58:	001017b7          	lui	a5,0x101
     c5c:	6587a783          	lw	a5,1624(a5) # 101658 <conv_ifm_index>
     c60:	00178693          	addi	a3,a5,1
     c64:	001007b7          	lui	a5,0x100
     c68:	0387a783          	lw	a5,56(a5) # 100038 <conv_param>
     c6c:	00100737          	lui	a4,0x100
     c70:	00269693          	slli	a3,a3,0x2
     c74:	15470713          	addi	a4,a4,340 # 100154 <fm_conv0_table_addr>
     c78:	00e68733          	add	a4,a3,a4
     c7c:	00072703          	lw	a4,0(a4)
     c80:	00e7ae23          	sw	a4,28(a5)
        conv_param->ofm_addr = fm_conv1_table_addr[1];
     c84:	001007b7          	lui	a5,0x100
     c88:	0387a783          	lw	a5,56(a5) # 100038 <conv_param>
     c8c:	00100737          	lui	a4,0x100
     c90:	17070713          	addi	a4,a4,368 # 100170 <fm_conv1_table_addr>
     c94:	00472703          	lw	a4,4(a4)
     c98:	00e7a823          	sw	a4,16(a5)
        conv_set(conv_param);
     c9c:	001007b7          	lui	a5,0x100
     ca0:	0387a783          	lw	a5,56(a5) # 100038 <conv_param>
     ca4:	00078513          	mv	a0,a5
     ca8:	2a8020ef          	jal	ra,2f50 <conv_set>

        if(conv_line != 0)
     cac:	001007b7          	lui	a5,0x100
     cb0:	09c7a783          	lw	a5,156(a5) # 10009c <conv_line>
     cb4:	00078a63          	beqz	a5,cc8 <conv1_pool1+0x938>
        {
            while(!svmr_check());
     cb8:	00000013          	nop
     cbc:	4cc020ef          	jal	ra,3188 <svmr_check>
     cc0:	00050793          	mv	a5,a0
     cc4:	fe078ce3          	beqz	a5,cbc <conv1_pool1+0x92c>
        }
        while(!intr_conv_act);
     cc8:	00000013          	nop
     ccc:	001017b7          	lui	a5,0x101
     cd0:	62c7a783          	lw	a5,1580(a5) # 10162c <intr_conv_act>
     cd4:	fe078ce3          	beqz	a5,ccc <conv1_pool1+0x93c>
        intr_conv_act = 0;
     cd8:	001017b7          	lui	a5,0x101
     cdc:	6207a623          	sw	zero,1580(a5) # 10162c <intr_conv_act>
        if(conv_line+6 < conv_fm_height)
     ce0:	001007b7          	lui	a5,0x100
     ce4:	09c7a783          	lw	a5,156(a5) # 10009c <conv_line>
     ce8:	00678713          	addi	a4,a5,6
     cec:	001007b7          	lui	a5,0x100
     cf0:	0547a783          	lw	a5,84(a5) # 100054 <conv_fm_height>
     cf4:	00f75a63          	ble	a5,a4,d08 <conv1_pool1+0x978>
        {
            while(!ldmr_check());
     cf8:	00000013          	nop
     cfc:	428020ef          	jal	ra,3124 <ldmr_check>
     d00:	00050793          	mv	a5,a0
     d04:	fe078ce3          	beqz	a5,cfc <conv1_pool1+0x96c>
    for(conv_line = 0; conv_line < conv_fm_height; conv_line += 4)
     d08:	001007b7          	lui	a5,0x100
     d0c:	09c7a783          	lw	a5,156(a5) # 10009c <conv_line>
     d10:	00478713          	addi	a4,a5,4
     d14:	001007b7          	lui	a5,0x100
     d18:	08e7ae23          	sw	a4,156(a5) # 10009c <conv_line>
     d1c:	001007b7          	lui	a5,0x100
     d20:	09c7a703          	lw	a4,156(a5) # 10009c <conv_line>
     d24:	001007b7          	lui	a5,0x100
     d28:	0547a783          	lw	a5,84(a5) # 100054 <conv_fm_height>
     d2c:	96f74ce3          	blt	a4,a5,6a4 <conv1_pool1+0x314>
    }

    // ==================================================================
    // pool last line
    // ==================================================================
    dwcalc_start();
     d30:	2b0020ef          	jal	ra,2fe0 <dwcalc_start>
    while(!intr_dwcalc_act);
     d34:	00000013          	nop
     d38:	001017b7          	lui	a5,0x101
     d3c:	6307a783          	lw	a5,1584(a5) # 101630 <intr_dwcalc_act>
     d40:	fe078ce3          	beqz	a5,d38 <conv1_pool1+0x9a8>
    intr_dwcalc_act = 0;
     d44:	001017b7          	lui	a5,0x101
     d48:	6207a823          	sw	zero,1584(a5) # 101630 <intr_dwcalc_act>

    // ==================================================================
    // svmr last line
    // ==================================================================
    svmr_start();
     d4c:	428020ef          	jal	ra,3174 <svmr_start>
    while(!svmr_check());
     d50:	00000013          	nop
     d54:	434020ef          	jal	ra,3188 <svmr_check>
     d58:	00050793          	mv	a5,a0
     d5c:	fe078ce3          	beqz	a5,d54 <conv1_pool1+0x9c4>

    // restore svmr/ldmr parameters
    ifm_param->reoder_en = 0;
     d60:	001007b7          	lui	a5,0x100
     d64:	03c7a783          	lw	a5,60(a5) # 10003c <ifm_param>
     d68:	0007a823          	sw	zero,16(a5)
    ifm_param->ddr_addr = ldmr_ddr_addr;
     d6c:	001007b7          	lui	a5,0x100
     d70:	03c7a783          	lw	a5,60(a5) # 10003c <ifm_param>
     d74:	fec42703          	lw	a4,-20(s0)
     d78:	00e7a023          	sw	a4,0(a5)
    ofm_param->ddr_addr = svmr_ddr_addr;
     d7c:	001007b7          	lui	a5,0x100
     d80:	0247a783          	lw	a5,36(a5) # 100024 <ofm_param>
     d84:	fe842703          	lw	a4,-24(s0)
     d88:	00e7a023          	sw	a4,0(a5)
}
     d8c:	00000013          	nop
     d90:	01c12083          	lw	ra,28(sp)
     d94:	01812403          	lw	s0,24(sp)
     d98:	02010113          	addi	sp,sp,32
     d9c:	00008067          	ret

00000da0 <interlayer_conv_a>:
// int conv_lb_pad_width;
// int conv_rb_pad_width;
// int conv_lb_fm_width;
// int conv_rb_fm_width;
void interlayer_conv_a()
{
     da0:	fc010113          	addi	sp,sp,-64
     da4:	02112e23          	sw	ra,60(sp)
     da8:	02812c23          	sw	s0,56(sp)
     dac:	04010413          	addi	s0,sp,64
    // save the svmr/ldmr parameters
    int ldmr_ddr_addr = ifm_param->ddr_addr;
     db0:	001007b7          	lui	a5,0x100
     db4:	03c7a783          	lw	a5,60(a5) # 10003c <ifm_param>
     db8:	0007a783          	lw	a5,0(a5)
     dbc:	fef42023          	sw	a5,-32(s0)
    int svmr_ddr_addr = ofm_param->ddr_addr;
     dc0:	001007b7          	lui	a5,0x100
     dc4:	0247a783          	lw	a5,36(a5) # 100024 <ofm_param>
     dc8:	0007a783          	lw	a5,0(a5)
     dcc:	fcf42e23          	sw	a5,-36(s0)
    int wt_ddr_addr = wt_conv_param->ddr_addr;
     dd0:	001007b7          	lui	a5,0x100
     dd4:	0707a783          	lw	a5,112(a5) # 100070 <wt_conv_param>
     dd8:	0007a783          	lw	a5,0(a5)
     ddc:	fcf42c23          	sw	a5,-40(s0)
    int wt_mr_addr = wt_conv_param->mr_addr;
     de0:	001007b7          	lui	a5,0x100
     de4:	0707a783          	lw	a5,112(a5) # 100070 <wt_conv_param>
     de8:	00c7a783          	lw	a5,12(a5)
     dec:	fcf42a23          	sw	a5,-44(s0)

    // calc_phase: 0=ra[i] 1=ra[i+1] 2=rb[i] 3=rc[i]&lb[i] 4=lc[i], where i is current line num.
    int calc_phase = 0;
     df0:	fe042623          	sw	zero,-20(s0)
    int score_board[5] = {1, 1, 2, 3, 1};
     df4:	001007b7          	lui	a5,0x100
     df8:	0007a583          	lw	a1,0(a5) # 100000 <DTCM>
     dfc:	00078713          	mv	a4,a5
     e00:	00472603          	lw	a2,4(a4)
     e04:	00078713          	mv	a4,a5
     e08:	00872683          	lw	a3,8(a4)
     e0c:	00078713          	mv	a4,a5
     e10:	00c72703          	lw	a4,12(a4)
     e14:	00078793          	mv	a5,a5
     e18:	0107a783          	lw	a5,16(a5)
     e1c:	fcb42023          	sw	a1,-64(s0)
     e20:	fcc42223          	sw	a2,-60(s0)
     e24:	fcd42423          	sw	a3,-56(s0)
     e28:	fce42623          	sw	a4,-52(s0)
     e2c:	fcf42823          	sw	a5,-48(s0)
    int ldmr_finish = 0;
     e30:	fe042423          	sw	zero,-24(s0)
    int i;
    // int last_ldmr_index = 0;

    // initialize variables
    ldmr_en = 0;
     e34:	001007b7          	lui	a5,0x100
     e38:	0607ae23          	sw	zero,124(a5) # 10007c <ldmr_en>
    ldmr_busy = 0;
     e3c:	001007b7          	lui	a5,0x100
     e40:	0807a023          	sw	zero,128(a5) # 100080 <ldmr_busy>
    ldmr_line = 0;
     e44:	001007b7          	lui	a5,0x100
     e48:	0807a223          	sw	zero,132(a5) # 100084 <ldmr_line>
    ldmr_index = 1;
     e4c:	001017b7          	lui	a5,0x101
     e50:	00100713          	li	a4,1
     e54:	64e7a623          	sw	a4,1612(a5) # 10164c <ldmr_index>

    calc_en = 0;
     e58:	001007b7          	lui	a5,0x100
     e5c:	0807a423          	sw	zero,136(a5) # 100088 <calc_en>
    calc_busy = 0;
     e60:	001007b7          	lui	a5,0x100
     e64:	0807a623          	sw	zero,140(a5) # 10008c <calc_busy>
    calc_line = 0;
     e68:	001007b7          	lui	a5,0x100
     e6c:	0807a823          	sw	zero,144(a5) # 100090 <calc_line>
    calc_ifm_index = 1;
     e70:	001017b7          	lui	a5,0x101
     e74:	00100713          	li	a4,1
     e78:	64e7a823          	sw	a4,1616(a5) # 101650 <calc_ifm_index>
    calc_ofm_index = 1;
     e7c:	001017b7          	lui	a5,0x101
     e80:	00100713          	li	a4,1
     e84:	64e7aa23          	sw	a4,1620(a5) # 101654 <calc_ofm_index>

    svmr_en = 0;
     e88:	001007b7          	lui	a5,0x100
     e8c:	0a07a623          	sw	zero,172(a5) # 1000ac <svmr_en>
    svmr_busy = 0;
     e90:	001007b7          	lui	a5,0x100
     e94:	0a07a823          	sw	zero,176(a5) # 1000b0 <svmr_busy>
    svmr_line = 0;
     e98:	001007b7          	lui	a5,0x100
     e9c:	0a07aa23          	sw	zero,180(a5) # 1000b4 <svmr_line>
    svmr_index = 1;
     ea0:	001017b7          	lui	a5,0x101
     ea4:	00100713          	li	a4,1
     ea8:	66e7a423          	sw	a4,1640(a5) # 101668 <svmr_index>

    // set the initial parameters of methods

    // load weight data
    ldmr_set(wt_dwc_param);
     eac:	001007b7          	lui	a5,0x100
     eb0:	0587a783          	lw	a5,88(a5) # 100058 <wt_dwc_param>
     eb4:	00078513          	mv	a0,a5
     eb8:	230020ef          	jal	ra,30e8 <ldmr_set>
    ldmr_start();
     ebc:	254020ef          	jal	ra,3110 <ldmr_start>
    while(!ldmr_check());
     ec0:	00000013          	nop
     ec4:	260020ef          	jal	ra,3124 <ldmr_check>
     ec8:	00050793          	mv	a5,a0
     ecc:	fe078ce3          	beqz	a5,ec4 <interlayer_conv_a+0x124>

    if(conv_ch64)
     ed0:	001007b7          	lui	a5,0x100
     ed4:	04c7a783          	lw	a5,76(a5) # 10004c <conv_ch64>
     ed8:	08078e63          	beqz	a5,f74 <interlayer_conv_a+0x1d4>
    {
        for(i=0; i<8; i++)
     edc:	fe042223          	sw	zero,-28(s0)
     ee0:	0840006f          	j	f64 <interlayer_conv_a+0x1c4>
        {
            ldmr_set(wt_conv_param);
     ee4:	001007b7          	lui	a5,0x100
     ee8:	0707a783          	lw	a5,112(a5) # 100070 <wt_conv_param>
     eec:	00078513          	mv	a0,a5
     ef0:	1f8020ef          	jal	ra,30e8 <ldmr_set>
            ldmr_start();
     ef4:	21c020ef          	jal	ra,3110 <ldmr_start>
            wt_conv_param->ddr_addr += (wt_conv_param->trans_len << 6);
     ef8:	001007b7          	lui	a5,0x100
     efc:	0707a783          	lw	a5,112(a5) # 100070 <wt_conv_param>
     f00:	0007a683          	lw	a3,0(a5)
     f04:	001007b7          	lui	a5,0x100
     f08:	0707a783          	lw	a5,112(a5) # 100070 <wt_conv_param>
     f0c:	0047a783          	lw	a5,4(a5)
     f10:	00679713          	slli	a4,a5,0x6
     f14:	001007b7          	lui	a5,0x100
     f18:	0707a783          	lw	a5,112(a5) # 100070 <wt_conv_param>
     f1c:	00e68733          	add	a4,a3,a4
     f20:	00e7a023          	sw	a4,0(a5)
            wt_conv_param->mr_addr += 0x02000200;
     f24:	001007b7          	lui	a5,0x100
     f28:	0707a783          	lw	a5,112(a5) # 100070 <wt_conv_param>
     f2c:	00c7a683          	lw	a3,12(a5)
     f30:	001007b7          	lui	a5,0x100
     f34:	0707a783          	lw	a5,112(a5) # 100070 <wt_conv_param>
     f38:	02000737          	lui	a4,0x2000
     f3c:	20070713          	addi	a4,a4,512 # 2000200 <CLINT+0x200>
     f40:	00e68733          	add	a4,a3,a4
     f44:	00e7a623          	sw	a4,12(a5)
            while(!ldmr_check());
     f48:	00000013          	nop
     f4c:	1d8020ef          	jal	ra,3124 <ldmr_check>
     f50:	00050793          	mv	a5,a0
     f54:	fe078ce3          	beqz	a5,f4c <interlayer_conv_a+0x1ac>
        for(i=0; i<8; i++)
     f58:	fe442783          	lw	a5,-28(s0)
     f5c:	00178793          	addi	a5,a5,1
     f60:	fef42223          	sw	a5,-28(s0)
     f64:	fe442703          	lw	a4,-28(s0)
     f68:	00700793          	li	a5,7
     f6c:	f6e7dce3          	ble	a4,a5,ee4 <interlayer_conv_a+0x144>
     f70:	0280006f          	j	f98 <interlayer_conv_a+0x1f8>
        }
    }
    else
    {
        ldmr_set(wt_conv_param);
     f74:	001007b7          	lui	a5,0x100
     f78:	0707a783          	lw	a5,112(a5) # 100070 <wt_conv_param>
     f7c:	00078513          	mv	a0,a5
     f80:	168020ef          	jal	ra,30e8 <ldmr_set>
        ldmr_start();
     f84:	18c020ef          	jal	ra,3110 <ldmr_start>
        while(!ldmr_check());
     f88:	00000013          	nop
     f8c:	198020ef          	jal	ra,3124 <ldmr_check>
     f90:	00050793          	mv	a5,a0
     f94:	fe078ce3          	beqz	a5,f8c <interlayer_conv_a+0x1ec>
    }

    // load bias data
    ldmr_set(bias_dwc_param);
     f98:	001007b7          	lui	a5,0x100
     f9c:	0447a783          	lw	a5,68(a5) # 100044 <bias_dwc_param>
     fa0:	00078513          	mv	a0,a5
     fa4:	144020ef          	jal	ra,30e8 <ldmr_set>
    ldmr_start();
     fa8:	168020ef          	jal	ra,3110 <ldmr_start>
    while(!ldmr_check());
     fac:	00000013          	nop
     fb0:	174020ef          	jal	ra,3124 <ldmr_check>
     fb4:	00050793          	mv	a5,a0
     fb8:	fe078ce3          	beqz	a5,fb0 <interlayer_conv_a+0x210>

    ldmr_set(bias_conv_param);
     fbc:	001007b7          	lui	a5,0x100
     fc0:	0187a783          	lw	a5,24(a5) # 100018 <bias_conv_param>
     fc4:	00078513          	mv	a0,a5
     fc8:	120020ef          	jal	ra,30e8 <ldmr_set>
    ldmr_start();
     fcc:	144020ef          	jal	ra,3110 <ldmr_start>
    while(!ldmr_check());
     fd0:	00000013          	nop
     fd4:	150020ef          	jal	ra,3124 <ldmr_check>
     fd8:	00050793          	mv	a5,a0
     fdc:	fe078ce3          	beqz	a5,fd4 <interlayer_conv_a+0x234>

    // initialize ldmr
    ifm_param->mr_addr = fm_layer0_table_addr[1]; // + conv_lb_pad_width;
     fe0:	001007b7          	lui	a5,0x100
     fe4:	03c7a783          	lw	a5,60(a5) # 10003c <ifm_param>
     fe8:	00100737          	lui	a4,0x100
     fec:	0c470713          	addi	a4,a4,196 # 1000c4 <fm_layer0_table_addr>
     ff0:	00472703          	lw	a4,4(a4)
     ff4:	00e7a623          	sw	a4,12(a5)
    ldmr_set(ifm_param);
     ff8:	001007b7          	lui	a5,0x100
     ffc:	03c7a783          	lw	a5,60(a5) # 10003c <ifm_param>
    1000:	00078513          	mv	a0,a5
    1004:	0e4020ef          	jal	ra,30e8 <ldmr_set>
    // initialize svmr
    ofm_param->mr_addr = fm_layer5_table_addr[1];
    1008:	001007b7          	lui	a5,0x100
    100c:	0247a783          	lw	a5,36(a5) # 100024 <ofm_param>
    1010:	00100737          	lui	a4,0x100
    1014:	14070713          	addi	a4,a4,320 # 100140 <fm_layer5_table_addr>
    1018:	00472703          	lw	a4,4(a4)
    101c:	00e7a623          	sw	a4,12(a5)
    svmr_set(ofm_param);
    1020:	001007b7          	lui	a5,0x100
    1024:	0247a783          	lw	a5,36(a5) # 100024 <ofm_param>
    1028:	00078513          	mv	a0,a5
    102c:	120020ef          	jal	ra,314c <svmr_set>
    // initialize conv
    right_a_param->ifm_addr0 = fm_layer0_table_addr[1]; // + conv_lb_pad_width;
    1030:	001007b7          	lui	a5,0x100
    1034:	0787a783          	lw	a5,120(a5) # 100078 <right_a_param>
    1038:	00100737          	lui	a4,0x100
    103c:	0c470713          	addi	a4,a4,196 # 1000c4 <fm_layer0_table_addr>
    1040:	00472703          	lw	a4,4(a4)
    1044:	00e7aa23          	sw	a4,20(a5)
    right_a_param->ofm_addr = fm_layer1_table_addr[1]; // + conv_rb_pad_width;
    1048:	001007b7          	lui	a5,0x100
    104c:	0787a783          	lw	a5,120(a5) # 100078 <right_a_param>
    1050:	00100737          	lui	a4,0x100
    1054:	0e470713          	addi	a4,a4,228 # 1000e4 <fm_layer1_table_addr>
    1058:	00472703          	lw	a4,4(a4)
    105c:	00e7a823          	sw	a4,16(a5)
    conv_set(right_a_param);
    1060:	001007b7          	lui	a5,0x100
    1064:	0787a783          	lw	a5,120(a5) # 100078 <right_a_param>
    1068:	00078513          	mv	a0,a5
    106c:	6e5010ef          	jal	ra,2f50 <conv_set>

    // Processing first row if no top padding
    if((conv_fm_height & 0x1) == 0)
    1070:	001007b7          	lui	a5,0x100
    1074:	0547a783          	lw	a5,84(a5) # 100054 <conv_fm_height>
    1078:	0017f793          	andi	a5,a5,1
    107c:	12079663          	bnez	a5,11a8 <interlayer_conv_a+0x408>
    {
        // load 1st row
        ldmr_start();
    1080:	090020ef          	jal	ra,3110 <ldmr_start>
        // set parameters for next command
        ldmr_index++;
    1084:	001017b7          	lui	a5,0x101
    1088:	64c7a783          	lw	a5,1612(a5) # 10164c <ldmr_index>
    108c:	00178713          	addi	a4,a5,1
    1090:	001017b7          	lui	a5,0x101
    1094:	64e7a623          	sw	a4,1612(a5) # 10164c <ldmr_index>
        ifm_param->mr_addr = fm_layer0_table_addr[2];
    1098:	001007b7          	lui	a5,0x100
    109c:	03c7a783          	lw	a5,60(a5) # 10003c <ifm_param>
    10a0:	00100737          	lui	a4,0x100
    10a4:	0c470713          	addi	a4,a4,196 # 1000c4 <fm_layer0_table_addr>
    10a8:	00872703          	lw	a4,8(a4)
    10ac:	00e7a623          	sw	a4,12(a5)
        ifm_param->ddr_addr += (ifm_param->trans_len << 6);
    10b0:	001007b7          	lui	a5,0x100
    10b4:	03c7a783          	lw	a5,60(a5) # 10003c <ifm_param>
    10b8:	0007a683          	lw	a3,0(a5)
    10bc:	001007b7          	lui	a5,0x100
    10c0:	03c7a783          	lw	a5,60(a5) # 10003c <ifm_param>
    10c4:	0047a783          	lw	a5,4(a5)
    10c8:	00679713          	slli	a4,a5,0x6
    10cc:	001007b7          	lui	a5,0x100
    10d0:	03c7a783          	lw	a5,60(a5) # 10003c <ifm_param>
    10d4:	00e68733          	add	a4,a3,a4
    10d8:	00e7a023          	sw	a4,0(a5)
        ldmr_set(ifm_param);
    10dc:	001007b7          	lui	a5,0x100
    10e0:	03c7a783          	lw	a5,60(a5) # 10003c <ifm_param>
    10e4:	00078513          	mv	a0,a5
    10e8:	000020ef          	jal	ra,30e8 <ldmr_set>
        while(!ldmr_check());
    10ec:	00000013          	nop
    10f0:	034020ef          	jal	ra,3124 <ldmr_check>
    10f4:	00050793          	mv	a5,a0
    10f8:	fe078ce3          	beqz	a5,10f0 <interlayer_conv_a+0x350>
        ldmr_line++;
    10fc:	001007b7          	lui	a5,0x100
    1100:	0847a783          	lw	a5,132(a5) # 100084 <ldmr_line>
    1104:	00178713          	addi	a4,a5,1
    1108:	001007b7          	lui	a5,0x100
    110c:	08e7a223          	sw	a4,132(a5) # 100084 <ldmr_line>
        // calc ra
        conv_start();
    1110:	669010ef          	jal	ra,2f78 <conv_start>
        // set parameters for next command
        right_a_param->ifm_addr0 = fm_layer0_table_addr[2]; // + conv_lb_pad_width;
    1114:	001007b7          	lui	a5,0x100
    1118:	0787a783          	lw	a5,120(a5) # 100078 <right_a_param>
    111c:	00100737          	lui	a4,0x100
    1120:	0c470713          	addi	a4,a4,196 # 1000c4 <fm_layer0_table_addr>
    1124:	00872703          	lw	a4,8(a4)
    1128:	00e7aa23          	sw	a4,20(a5)
        right_a_param->ofm_addr = fm_layer1_table_addr[2]; // + conv_rb_pad_width;
    112c:	001007b7          	lui	a5,0x100
    1130:	0787a783          	lw	a5,120(a5) # 100078 <right_a_param>
    1134:	00100737          	lui	a4,0x100
    1138:	0e470713          	addi	a4,a4,228 # 1000e4 <fm_layer1_table_addr>
    113c:	00872703          	lw	a4,8(a4)
    1140:	00e7a823          	sw	a4,16(a5)
        conv_set(right_a_param);
    1144:	001007b7          	lui	a5,0x100
    1148:	0787a783          	lw	a5,120(a5) # 100078 <right_a_param>
    114c:	00078513          	mv	a0,a5
    1150:	601010ef          	jal	ra,2f50 <conv_set>
        calc_ifm_index++;
    1154:	001017b7          	lui	a5,0x101
    1158:	6507a783          	lw	a5,1616(a5) # 101650 <calc_ifm_index>
    115c:	00178713          	addi	a4,a5,1
    1160:	001017b7          	lui	a5,0x101
    1164:	64e7a823          	sw	a4,1616(a5) # 101650 <calc_ifm_index>
        while(!intr_conv_act);
    1168:	00000013          	nop
    116c:	001017b7          	lui	a5,0x101
    1170:	62c7a783          	lw	a5,1580(a5) # 10162c <intr_conv_act>
    1174:	fe078ce3          	beqz	a5,116c <interlayer_conv_a+0x3cc>
        intr_conv_act = 0;
    1178:	001017b7          	lui	a5,0x101
    117c:	6207a623          	sw	zero,1580(a5) # 10162c <intr_conv_act>
        calc_line++;
    1180:	001007b7          	lui	a5,0x100
    1184:	0907a783          	lw	a5,144(a5) # 100090 <calc_line>
    1188:	00178713          	addi	a4,a5,1
    118c:	001007b7          	lui	a5,0x100
    1190:	08e7a823          	sw	a4,144(a5) # 100090 <calc_line>
        svmr_line++;
    1194:	001007b7          	lui	a5,0x100
    1198:	0b47a783          	lw	a5,180(a5) # 1000b4 <svmr_line>
    119c:	00178713          	addi	a4,a5,1
    11a0:	001007b7          	lui	a5,0x100
    11a4:	0ae7aa23          	sw	a4,180(a5) # 1000b4 <svmr_line>

    while(1)
    {
        // =====
        // Process 1: load 1 line of feature map
        if(ldmr_check())
    11a8:	77d010ef          	jal	ra,3124 <ldmr_check>
    11ac:	00050793          	mv	a5,a0
    11b0:	02078e63          	beqz	a5,11ec <interlayer_conv_a+0x44c>
        {
            ldmr_line++;
    11b4:	001007b7          	lui	a5,0x100
    11b8:	0847a783          	lw	a5,132(a5) # 100084 <ldmr_line>
    11bc:	00178713          	addi	a4,a5,1
    11c0:	001007b7          	lui	a5,0x100
    11c4:	08e7a223          	sw	a4,132(a5) # 100084 <ldmr_line>
            ldmr_busy = 0;
    11c8:	001007b7          	lui	a5,0x100
    11cc:	0807a023          	sw	zero,128(a5) # 100080 <ldmr_busy>
            if(ldmr_line == conv_fm_height)
    11d0:	001007b7          	lui	a5,0x100
    11d4:	0847a703          	lw	a4,132(a5) # 100084 <ldmr_line>
    11d8:	001007b7          	lui	a5,0x100
    11dc:	0547a783          	lw	a5,84(a5) # 100054 <conv_fm_height>
    11e0:	00f71663          	bne	a4,a5,11ec <interlayer_conv_a+0x44c>
                ldmr_finish = 1;
    11e4:	00100793          	li	a5,1
    11e8:	fef42423          	sw	a5,-24(s0)
            // left_b_dt_param->dest_addr = fm_layer0_table_addr[last_ldmr_index];
            // dtrans_set(left_b_dt_param);
            // dtrans_start();
            // while(!dtrans_check());
        }
        if((ldmr_line < calc_line + 5) && (ldmr_line < conv_fm_height))
    11ec:	001007b7          	lui	a5,0x100
    11f0:	0907a783          	lw	a5,144(a5) # 100090 <calc_line>
    11f4:	00578713          	addi	a4,a5,5
    11f8:	001007b7          	lui	a5,0x100
    11fc:	0847a783          	lw	a5,132(a5) # 100084 <ldmr_line>
    1200:	02e7da63          	ble	a4,a5,1234 <interlayer_conv_a+0x494>
    1204:	001007b7          	lui	a5,0x100
    1208:	0847a703          	lw	a4,132(a5) # 100084 <ldmr_line>
    120c:	001007b7          	lui	a5,0x100
    1210:	0547a783          	lw	a5,84(a5) # 100054 <conv_fm_height>
    1214:	02f75063          	ble	a5,a4,1234 <interlayer_conv_a+0x494>
        {
            ldmr_en = !ldmr_busy;
    1218:	001007b7          	lui	a5,0x100
    121c:	0807a783          	lw	a5,128(a5) # 100080 <ldmr_busy>
    1220:	0017b793          	seqz	a5,a5
    1224:	0ff7f793          	andi	a5,a5,255
    1228:	00078713          	mv	a4,a5
    122c:	001007b7          	lui	a5,0x100
    1230:	06e7ae23          	sw	a4,124(a5) # 10007c <ldmr_en>
        }
        if(ldmr_en)
    1234:	001007b7          	lui	a5,0x100
    1238:	07c7a783          	lw	a5,124(a5) # 10007c <ldmr_en>
    123c:	0a078c63          	beqz	a5,12f4 <interlayer_conv_a+0x554>
        {
            ldmr_busy = 1;
    1240:	001007b7          	lui	a5,0x100
    1244:	00100713          	li	a4,1
    1248:	08e7a023          	sw	a4,128(a5) # 100080 <ldmr_busy>
            ldmr_en = 0;
    124c:	001007b7          	lui	a5,0x100
    1250:	0607ae23          	sw	zero,124(a5) # 10007c <ldmr_en>
            ldmr_start();
    1254:	6bd010ef          	jal	ra,3110 <ldmr_start>

            // set parameters for next command
            // last_ldmr_index = ldmr_index;
            ldmr_index++;
    1258:	001017b7          	lui	a5,0x101
    125c:	64c7a783          	lw	a5,1612(a5) # 10164c <ldmr_index>
    1260:	00178713          	addi	a4,a5,1
    1264:	001017b7          	lui	a5,0x101
    1268:	64e7a623          	sw	a4,1612(a5) # 10164c <ldmr_index>
            if(ldmr_index > 6) ldmr_index -= 6;
    126c:	001017b7          	lui	a5,0x101
    1270:	64c7a703          	lw	a4,1612(a5) # 10164c <ldmr_index>
    1274:	00600793          	li	a5,6
    1278:	00e7dc63          	ble	a4,a5,1290 <interlayer_conv_a+0x4f0>
    127c:	001017b7          	lui	a5,0x101
    1280:	64c7a783          	lw	a5,1612(a5) # 10164c <ldmr_index>
    1284:	ffa78713          	addi	a4,a5,-6
    1288:	001017b7          	lui	a5,0x101
    128c:	64e7a623          	sw	a4,1612(a5) # 10164c <ldmr_index>
            ifm_param->mr_addr = fm_layer0_table_addr[ldmr_index]; // + conv_lb_pad_width;
    1290:	001017b7          	lui	a5,0x101
    1294:	64c7a683          	lw	a3,1612(a5) # 10164c <ldmr_index>
    1298:	001007b7          	lui	a5,0x100
    129c:	03c7a783          	lw	a5,60(a5) # 10003c <ifm_param>
    12a0:	00100737          	lui	a4,0x100
    12a4:	00269693          	slli	a3,a3,0x2
    12a8:	0c470713          	addi	a4,a4,196 # 1000c4 <fm_layer0_table_addr>
    12ac:	00e68733          	add	a4,a3,a4
    12b0:	00072703          	lw	a4,0(a4)
    12b4:	00e7a623          	sw	a4,12(a5)
            ifm_param->ddr_addr += (ifm_param->trans_len << 6);
    12b8:	001007b7          	lui	a5,0x100
    12bc:	03c7a783          	lw	a5,60(a5) # 10003c <ifm_param>
    12c0:	0007a683          	lw	a3,0(a5)
    12c4:	001007b7          	lui	a5,0x100
    12c8:	03c7a783          	lw	a5,60(a5) # 10003c <ifm_param>
    12cc:	0047a783          	lw	a5,4(a5)
    12d0:	00679713          	slli	a4,a5,0x6
    12d4:	001007b7          	lui	a5,0x100
    12d8:	03c7a783          	lw	a5,60(a5) # 10003c <ifm_param>
    12dc:	00e68733          	add	a4,a3,a4
    12e0:	00e7a023          	sw	a4,0(a5)
            ldmr_set(ifm_param);
    12e4:	001007b7          	lui	a5,0x100
    12e8:	03c7a783          	lw	a5,60(a5) # 10003c <ifm_param>
    12ec:	00078513          	mv	a0,a5
    12f0:	5f9010ef          	jal	ra,30e8 <ldmr_set>
        }

        // =====
        // Process 2: calculate feature map
        if( (!(score_board[calc_phase] & 0x00000001) || intr_conv_act)
    12f4:	fec42783          	lw	a5,-20(s0)
    12f8:	00279793          	slli	a5,a5,0x2
    12fc:	ff040713          	addi	a4,s0,-16
    1300:	00f707b3          	add	a5,a4,a5
    1304:	fd07a783          	lw	a5,-48(a5)
    1308:	0017f793          	andi	a5,a5,1
    130c:	00078863          	beqz	a5,131c <interlayer_conv_a+0x57c>
    1310:	001017b7          	lui	a5,0x101
    1314:	62c7a783          	lw	a5,1580(a5) # 10162c <intr_conv_act>
    1318:	0a078863          	beqz	a5,13c8 <interlayer_conv_a+0x628>
        &&  (!(score_board[calc_phase] & 0x00000002) || intr_dwcalc_act) )
    131c:	fec42783          	lw	a5,-20(s0)
    1320:	00279793          	slli	a5,a5,0x2
    1324:	ff040713          	addi	a4,s0,-16
    1328:	00f707b3          	add	a5,a4,a5
    132c:	fd07a783          	lw	a5,-48(a5)
    1330:	0027f793          	andi	a5,a5,2
    1334:	00078863          	beqz	a5,1344 <interlayer_conv_a+0x5a4>
    1338:	001017b7          	lui	a5,0x101
    133c:	6307a783          	lw	a5,1584(a5) # 101630 <intr_dwcalc_act>
    1340:	08078463          	beqz	a5,13c8 <interlayer_conv_a+0x628>
        {
            if(score_board[calc_phase] & 0x00000001)
    1344:	fec42783          	lw	a5,-20(s0)
    1348:	00279793          	slli	a5,a5,0x2
    134c:	ff040713          	addi	a4,s0,-16
    1350:	00f707b3          	add	a5,a4,a5
    1354:	fd07a783          	lw	a5,-48(a5)
    1358:	0017f793          	andi	a5,a5,1
    135c:	00078663          	beqz	a5,1368 <interlayer_conv_a+0x5c8>
            {
                intr_conv_act = 0;
    1360:	001017b7          	lui	a5,0x101
    1364:	6207a623          	sw	zero,1580(a5) # 10162c <intr_conv_act>
            }
            if(score_board[calc_phase] & 0x00000002)
    1368:	fec42783          	lw	a5,-20(s0)
    136c:	00279793          	slli	a5,a5,0x2
    1370:	ff040713          	addi	a4,s0,-16
    1374:	00f707b3          	add	a5,a4,a5
    1378:	fd07a783          	lw	a5,-48(a5)
    137c:	0027f793          	andi	a5,a5,2
    1380:	00078663          	beqz	a5,138c <interlayer_conv_a+0x5ec>
            {
                intr_dwcalc_act = 0;
    1384:	001017b7          	lui	a5,0x101
    1388:	6207a823          	sw	zero,1584(a5) # 101630 <intr_dwcalc_act>
            }
            if(calc_phase == 4)
    138c:	fec42703          	lw	a4,-20(s0)
    1390:	00400793          	li	a5,4
    1394:	02f71063          	bne	a4,a5,13b4 <interlayer_conv_a+0x614>
            {
                calc_phase = 0;
    1398:	fe042623          	sw	zero,-20(s0)
                calc_line += 2;
    139c:	001007b7          	lui	a5,0x100
    13a0:	0907a783          	lw	a5,144(a5) # 100090 <calc_line>
    13a4:	00278713          	addi	a4,a5,2
    13a8:	001007b7          	lui	a5,0x100
    13ac:	08e7a823          	sw	a4,144(a5) # 100090 <calc_line>
    13b0:	0100006f          	j	13c0 <interlayer_conv_a+0x620>
            }
            else
            {
                calc_phase++;
    13b4:	fec42783          	lw	a5,-20(s0)
    13b8:	00178793          	addi	a5,a5,1
    13bc:	fef42623          	sw	a5,-20(s0)
            }
            calc_busy = 0;
    13c0:	001007b7          	lui	a5,0x100
    13c4:	0807a623          	sw	zero,140(a5) # 10008c <calc_busy>
        }
        if((calc_line < ldmr_line - 1 || ldmr_finish) && (calc_line < svmr_line + 4) && (calc_line < conv_fm_height))
    13c8:	001007b7          	lui	a5,0x100
    13cc:	0847a783          	lw	a5,132(a5) # 100084 <ldmr_line>
    13d0:	fff78713          	addi	a4,a5,-1
    13d4:	001007b7          	lui	a5,0x100
    13d8:	0907a783          	lw	a5,144(a5) # 100090 <calc_line>
    13dc:	00e7c663          	blt	a5,a4,13e8 <interlayer_conv_a+0x648>
    13e0:	fe842783          	lw	a5,-24(s0)
    13e4:	04078663          	beqz	a5,1430 <interlayer_conv_a+0x690>
    13e8:	001007b7          	lui	a5,0x100
    13ec:	0b47a783          	lw	a5,180(a5) # 1000b4 <svmr_line>
    13f0:	00478713          	addi	a4,a5,4
    13f4:	001007b7          	lui	a5,0x100
    13f8:	0907a783          	lw	a5,144(a5) # 100090 <calc_line>
    13fc:	02e7da63          	ble	a4,a5,1430 <interlayer_conv_a+0x690>
    1400:	001007b7          	lui	a5,0x100
    1404:	0907a703          	lw	a4,144(a5) # 100090 <calc_line>
    1408:	001007b7          	lui	a5,0x100
    140c:	0547a783          	lw	a5,84(a5) # 100054 <conv_fm_height>
    1410:	02f75063          	ble	a5,a4,1430 <interlayer_conv_a+0x690>
        {
            calc_en = !calc_busy;
    1414:	001007b7          	lui	a5,0x100
    1418:	08c7a783          	lw	a5,140(a5) # 10008c <calc_busy>
    141c:	0017b793          	seqz	a5,a5
    1420:	0ff7f793          	andi	a5,a5,255
    1424:	00078713          	mv	a4,a5
    1428:	001007b7          	lui	a5,0x100
    142c:	08e7a423          	sw	a4,136(a5) # 100088 <calc_en>
        }
        if(calc_en)
    1430:	001007b7          	lui	a5,0x100
    1434:	0887a783          	lw	a5,136(a5) # 100088 <calc_en>
    1438:	42078463          	beqz	a5,1860 <interlayer_conv_a+0xac0>
        {
            calc_busy = 1;
    143c:	001007b7          	lui	a5,0x100
    1440:	00100713          	li	a4,1
    1444:	08e7a623          	sw	a4,140(a5) # 10008c <calc_busy>
            calc_en = 0;
    1448:	001007b7          	lui	a5,0x100
    144c:	0807a423          	sw	zero,136(a5) # 100088 <calc_en>
            if(calc_phase == 0)
    1450:	fec42783          	lw	a5,-20(s0)
    1454:	06079a63          	bnez	a5,14c8 <interlayer_conv_a+0x728>
            {
                conv_start();
    1458:	321010ef          	jal	ra,2f78 <conv_start>
                // set parameters for next command
                right_a_param->ifm_addr0 = fm_layer0_table_addr[calc_ifm_index+1]; // + conv_lb_pad_width;
    145c:	001017b7          	lui	a5,0x101
    1460:	6507a783          	lw	a5,1616(a5) # 101650 <calc_ifm_index>
    1464:	00178693          	addi	a3,a5,1
    1468:	001007b7          	lui	a5,0x100
    146c:	0787a783          	lw	a5,120(a5) # 100078 <right_a_param>
    1470:	00100737          	lui	a4,0x100
    1474:	00269693          	slli	a3,a3,0x2
    1478:	0c470713          	addi	a4,a4,196 # 1000c4 <fm_layer0_table_addr>
    147c:	00e68733          	add	a4,a3,a4
    1480:	00072703          	lw	a4,0(a4)
    1484:	00e7aa23          	sw	a4,20(a5)
                right_a_param->ofm_addr = fm_layer1_table_addr[calc_ifm_index+1]; // + conv_rb_pad_width;
    1488:	001017b7          	lui	a5,0x101
    148c:	6507a783          	lw	a5,1616(a5) # 101650 <calc_ifm_index>
    1490:	00178693          	addi	a3,a5,1
    1494:	001007b7          	lui	a5,0x100
    1498:	0787a783          	lw	a5,120(a5) # 100078 <right_a_param>
    149c:	00100737          	lui	a4,0x100
    14a0:	00269693          	slli	a3,a3,0x2
    14a4:	0e470713          	addi	a4,a4,228 # 1000e4 <fm_layer1_table_addr>
    14a8:	00e68733          	add	a4,a3,a4
    14ac:	00072703          	lw	a4,0(a4)
    14b0:	00e7a823          	sw	a4,16(a5)

                conv_set(right_a_param);
    14b4:	001007b7          	lui	a5,0x100
    14b8:	0787a783          	lw	a5,120(a5) # 100078 <right_a_param>
    14bc:	00078513          	mv	a0,a5
    14c0:	291010ef          	jal	ra,2f50 <conv_set>
    14c4:	39c0006f          	j	1860 <interlayer_conv_a+0xac0>
            }
            else if(calc_phase == 1)
    14c8:	fec42703          	lw	a4,-20(s0)
    14cc:	00100793          	li	a5,1
    14d0:	0ef71e63          	bne	a4,a5,15cc <interlayer_conv_a+0x82c>
            {
                conv_start();
    14d4:	2a5010ef          	jal	ra,2f78 <conv_start>
                // set parameters for next command
                right_b_param->ifm_addr0 = fm_layer1_table_addr[calc_ifm_index-1];
    14d8:	001017b7          	lui	a5,0x101
    14dc:	6507a783          	lw	a5,1616(a5) # 101650 <calc_ifm_index>
    14e0:	fff78693          	addi	a3,a5,-1
    14e4:	001007b7          	lui	a5,0x100
    14e8:	02c7a783          	lw	a5,44(a5) # 10002c <right_b_param>
    14ec:	00100737          	lui	a4,0x100
    14f0:	00269693          	slli	a3,a3,0x2
    14f4:	0e470713          	addi	a4,a4,228 # 1000e4 <fm_layer1_table_addr>
    14f8:	00e68733          	add	a4,a3,a4
    14fc:	00072703          	lw	a4,0(a4)
    1500:	00e7aa23          	sw	a4,20(a5)
                right_b_param->ifm_addr1 = fm_layer1_table_addr[calc_ifm_index];
    1504:	001017b7          	lui	a5,0x101
    1508:	6507a683          	lw	a3,1616(a5) # 101650 <calc_ifm_index>
    150c:	001007b7          	lui	a5,0x100
    1510:	02c7a783          	lw	a5,44(a5) # 10002c <right_b_param>
    1514:	00100737          	lui	a4,0x100
    1518:	00269693          	slli	a3,a3,0x2
    151c:	0e470713          	addi	a4,a4,228 # 1000e4 <fm_layer1_table_addr>
    1520:	00e68733          	add	a4,a3,a4
    1524:	00072703          	lw	a4,0(a4)
    1528:	00e7ac23          	sw	a4,24(a5)
                right_b_param->ifm_addr2 = fm_layer1_table_addr[calc_ifm_index+1];
    152c:	001017b7          	lui	a5,0x101
    1530:	6507a783          	lw	a5,1616(a5) # 101650 <calc_ifm_index>
    1534:	00178693          	addi	a3,a5,1
    1538:	001007b7          	lui	a5,0x100
    153c:	02c7a783          	lw	a5,44(a5) # 10002c <right_b_param>
    1540:	00100737          	lui	a4,0x100
    1544:	00269693          	slli	a3,a3,0x2
    1548:	0e470713          	addi	a4,a4,228 # 1000e4 <fm_layer1_table_addr>
    154c:	00e68733          	add	a4,a3,a4
    1550:	00072703          	lw	a4,0(a4)
    1554:	00e7ae23          	sw	a4,28(a5)
                if(calc_line == 0)
    1558:	001007b7          	lui	a5,0x100
    155c:	0907a783          	lw	a5,144(a5) # 100090 <calc_line>
    1560:	00079c63          	bnez	a5,1578 <interlayer_conv_a+0x7d8>
                {
                    right_b_param->ifm_addr0 = 0x00003e00;
    1564:	001007b7          	lui	a5,0x100
    1568:	02c7a783          	lw	a5,44(a5) # 10002c <right_b_param>
    156c:	00004737          	lui	a4,0x4
    1570:	e0070713          	addi	a4,a4,-512 # 3e00 <init_intr+0xbb0>
    1574:	00e7aa23          	sw	a4,20(a5)
                }
                if(calc_line >= conv_fm_height -1)
    1578:	001007b7          	lui	a5,0x100
    157c:	0547a783          	lw	a5,84(a5) # 100054 <conv_fm_height>
    1580:	fff78713          	addi	a4,a5,-1
    1584:	001007b7          	lui	a5,0x100
    1588:	0907a783          	lw	a5,144(a5) # 100090 <calc_line>
    158c:	00e7cc63          	blt	a5,a4,15a4 <interlayer_conv_a+0x804>
                {
                    right_b_param->ifm_addr2 = 0x00003e00;
    1590:	001007b7          	lui	a5,0x100
    1594:	02c7a783          	lw	a5,44(a5) # 10002c <right_b_param>
    1598:	00004737          	lui	a4,0x4
    159c:	e0070713          	addi	a4,a4,-512 # 3e00 <init_intr+0xbb0>
    15a0:	00e7ae23          	sw	a4,28(a5)
                }
                right_b_param->ofm_addr = fm_layer2_table_addr[0];
    15a4:	001007b7          	lui	a5,0x100
    15a8:	02c7a783          	lw	a5,44(a5) # 10002c <right_b_param>
    15ac:	00100737          	lui	a4,0x100
    15b0:	10472703          	lw	a4,260(a4) # 100104 <fm_layer2_table_addr>
    15b4:	00e7a823          	sw	a4,16(a5)
                // right_b_param->ofm_addr = fm_layer2_table_addr[0];
                dwcalc_set(right_b_param);
    15b8:	001007b7          	lui	a5,0x100
    15bc:	02c7a783          	lw	a5,44(a5) # 10002c <right_b_param>
    15c0:	00078513          	mv	a0,a5
    15c4:	1f5010ef          	jal	ra,2fb8 <dwcalc_set>
    15c8:	2980006f          	j	1860 <interlayer_conv_a+0xac0>
            }
            else if(calc_phase == 2)
    15cc:	fec42703          	lw	a4,-20(s0)
    15d0:	00200793          	li	a5,2
    15d4:	14f71463          	bne	a4,a5,171c <interlayer_conv_a+0x97c>
                // right_b_dt_param->dest_addr = right_b_param->ifm_addr2;
                // dtrans_set(right_b_dt_param);
                // dtrans_start();
                // while(!dtrans_check());

                dwcalc_start();
    15d8:	209010ef          	jal	ra,2fe0 <dwcalc_start>
                // set parameters for next command
                right_c_param->ifm_addr0 = fm_layer2_table_addr[0];
    15dc:	001007b7          	lui	a5,0x100
    15e0:	0287a783          	lw	a5,40(a5) # 100028 <right_c_param>
    15e4:	00100737          	lui	a4,0x100
    15e8:	10472703          	lw	a4,260(a4) # 100104 <fm_layer2_table_addr>
    15ec:	00e7aa23          	sw	a4,20(a5)
                right_c_param->ofm_addr = fm_layer5_table_addr[calc_ofm_index];
    15f0:	001017b7          	lui	a5,0x101
    15f4:	6547a683          	lw	a3,1620(a5) # 101654 <calc_ofm_index>
    15f8:	001007b7          	lui	a5,0x100
    15fc:	0287a783          	lw	a5,40(a5) # 100028 <right_c_param>
    1600:	00100737          	lui	a4,0x100
    1604:	00269693          	slli	a3,a3,0x2
    1608:	14070713          	addi	a4,a4,320 # 100140 <fm_layer5_table_addr>
    160c:	00e68733          	add	a4,a3,a4
    1610:	00072703          	lw	a4,0(a4)
    1614:	00e7a823          	sw	a4,16(a5)
                conv_set(right_c_param);
    1618:	001007b7          	lui	a5,0x100
    161c:	0287a783          	lw	a5,40(a5) # 100028 <right_c_param>
    1620:	00078513          	mv	a0,a5
    1624:	12d010ef          	jal	ra,2f50 <conv_set>
                left_b_param->ifm_addr0 = fm_layer0_table_addr[calc_ifm_index-1];
    1628:	001017b7          	lui	a5,0x101
    162c:	6507a783          	lw	a5,1616(a5) # 101650 <calc_ifm_index>
    1630:	fff78693          	addi	a3,a5,-1
    1634:	001007b7          	lui	a5,0x100
    1638:	05c7a783          	lw	a5,92(a5) # 10005c <left_b_param>
    163c:	00100737          	lui	a4,0x100
    1640:	00269693          	slli	a3,a3,0x2
    1644:	0c470713          	addi	a4,a4,196 # 1000c4 <fm_layer0_table_addr>
    1648:	00e68733          	add	a4,a3,a4
    164c:	00072703          	lw	a4,0(a4)
    1650:	00e7aa23          	sw	a4,20(a5)
                left_b_param->ifm_addr1 = fm_layer0_table_addr[calc_ifm_index];
    1654:	001017b7          	lui	a5,0x101
    1658:	6507a683          	lw	a3,1616(a5) # 101650 <calc_ifm_index>
    165c:	001007b7          	lui	a5,0x100
    1660:	05c7a783          	lw	a5,92(a5) # 10005c <left_b_param>
    1664:	00100737          	lui	a4,0x100
    1668:	00269693          	slli	a3,a3,0x2
    166c:	0c470713          	addi	a4,a4,196 # 1000c4 <fm_layer0_table_addr>
    1670:	00e68733          	add	a4,a3,a4
    1674:	00072703          	lw	a4,0(a4)
    1678:	00e7ac23          	sw	a4,24(a5)
                left_b_param->ifm_addr2 = fm_layer0_table_addr[calc_ifm_index+1];
    167c:	001017b7          	lui	a5,0x101
    1680:	6507a783          	lw	a5,1616(a5) # 101650 <calc_ifm_index>
    1684:	00178693          	addi	a3,a5,1
    1688:	001007b7          	lui	a5,0x100
    168c:	05c7a783          	lw	a5,92(a5) # 10005c <left_b_param>
    1690:	00100737          	lui	a4,0x100
    1694:	00269693          	slli	a3,a3,0x2
    1698:	0c470713          	addi	a4,a4,196 # 1000c4 <fm_layer0_table_addr>
    169c:	00e68733          	add	a4,a3,a4
    16a0:	00072703          	lw	a4,0(a4)
    16a4:	00e7ae23          	sw	a4,28(a5)
                if(calc_line == 0)
    16a8:	001007b7          	lui	a5,0x100
    16ac:	0907a783          	lw	a5,144(a5) # 100090 <calc_line>
    16b0:	00079c63          	bnez	a5,16c8 <interlayer_conv_a+0x928>
                {
                    left_b_param->ifm_addr0 = 0x00003e00;
    16b4:	001007b7          	lui	a5,0x100
    16b8:	05c7a783          	lw	a5,92(a5) # 10005c <left_b_param>
    16bc:	00004737          	lui	a4,0x4
    16c0:	e0070713          	addi	a4,a4,-512 # 3e00 <init_intr+0xbb0>
    16c4:	00e7aa23          	sw	a4,20(a5)
                }
                if(calc_line >= conv_fm_height - 1)
    16c8:	001007b7          	lui	a5,0x100
    16cc:	0547a783          	lw	a5,84(a5) # 100054 <conv_fm_height>
    16d0:	fff78713          	addi	a4,a5,-1
    16d4:	001007b7          	lui	a5,0x100
    16d8:	0907a783          	lw	a5,144(a5) # 100090 <calc_line>
    16dc:	00e7cc63          	blt	a5,a4,16f4 <interlayer_conv_a+0x954>
                {
                    left_b_param->ifm_addr2 = 0x00003e00;
    16e0:	001007b7          	lui	a5,0x100
    16e4:	05c7a783          	lw	a5,92(a5) # 10005c <left_b_param>
    16e8:	00004737          	lui	a4,0x4
    16ec:	e0070713          	addi	a4,a4,-512 # 3e00 <init_intr+0xbb0>
    16f0:	00e7ae23          	sw	a4,28(a5)
                }
                left_b_param->ofm_addr = fm_layer3_table_addr[0];
    16f4:	001007b7          	lui	a5,0x100
    16f8:	05c7a783          	lw	a5,92(a5) # 10005c <left_b_param>
    16fc:	00100737          	lui	a4,0x100
    1700:	11872703          	lw	a4,280(a4) # 100118 <fm_layer3_table_addr>
    1704:	00e7a823          	sw	a4,16(a5)
                // left_b_param->ofm_addr = fm_layer3_table_addr[0];
                dwcalc_set(left_b_param);
    1708:	001007b7          	lui	a5,0x100
    170c:	05c7a783          	lw	a5,92(a5) # 10005c <left_b_param>
    1710:	00078513          	mv	a0,a5
    1714:	0a5010ef          	jal	ra,2fb8 <dwcalc_set>
    1718:	1480006f          	j	1860 <interlayer_conv_a+0xac0>
            }
            else if(calc_phase == 3)
    171c:	fec42703          	lw	a4,-20(s0)
    1720:	00300793          	li	a5,3
    1724:	04f71e63          	bne	a4,a5,1780 <interlayer_conv_a+0x9e0>
            {
                conv_start();
    1728:	051010ef          	jal	ra,2f78 <conv_start>
                dwcalc_start();
    172c:	0b5010ef          	jal	ra,2fe0 <dwcalc_start>
                // set parameters for next command
                left_c_param->ifm_addr0 = fm_layer3_table_addr[0];
    1730:	001007b7          	lui	a5,0x100
    1734:	0307a783          	lw	a5,48(a5) # 100030 <left_c_param>
    1738:	00100737          	lui	a4,0x100
    173c:	11872703          	lw	a4,280(a4) # 100118 <fm_layer3_table_addr>
    1740:	00e7aa23          	sw	a4,20(a5)
                left_c_param->ofm_addr = fm_layer5_table_addr[calc_ofm_index];
    1744:	001017b7          	lui	a5,0x101
    1748:	6547a683          	lw	a3,1620(a5) # 101654 <calc_ofm_index>
    174c:	001007b7          	lui	a5,0x100
    1750:	0307a783          	lw	a5,48(a5) # 100030 <left_c_param>
    1754:	00100737          	lui	a4,0x100
    1758:	00269693          	slli	a3,a3,0x2
    175c:	14070713          	addi	a4,a4,320 # 100140 <fm_layer5_table_addr>
    1760:	00e68733          	add	a4,a3,a4
    1764:	00072703          	lw	a4,0(a4)
    1768:	00e7a823          	sw	a4,16(a5)
                conv_set(left_c_param);
    176c:	001007b7          	lui	a5,0x100
    1770:	0307a783          	lw	a5,48(a5) # 100030 <left_c_param>
    1774:	00078513          	mv	a0,a5
    1778:	7d8010ef          	jal	ra,2f50 <conv_set>
    177c:	0e40006f          	j	1860 <interlayer_conv_a+0xac0>
            }
            else if(calc_phase == 4)
    1780:	fec42703          	lw	a4,-20(s0)
    1784:	00400793          	li	a5,4
    1788:	0cf71c63          	bne	a4,a5,1860 <interlayer_conv_a+0xac0>
            {
                conv_start();
    178c:	7ec010ef          	jal	ra,2f78 <conv_start>
                // set parameters for next command
                calc_ifm_index += 2;
    1790:	001017b7          	lui	a5,0x101
    1794:	6507a783          	lw	a5,1616(a5) # 101650 <calc_ifm_index>
    1798:	00278713          	addi	a4,a5,2
    179c:	001017b7          	lui	a5,0x101
    17a0:	64e7a823          	sw	a4,1616(a5) # 101650 <calc_ifm_index>
                if(calc_ifm_index > 6) calc_ifm_index -= 6;
    17a4:	001017b7          	lui	a5,0x101
    17a8:	6507a703          	lw	a4,1616(a5) # 101650 <calc_ifm_index>
    17ac:	00600793          	li	a5,6
    17b0:	00e7dc63          	ble	a4,a5,17c8 <interlayer_conv_a+0xa28>
    17b4:	001017b7          	lui	a5,0x101
    17b8:	6507a783          	lw	a5,1616(a5) # 101650 <calc_ifm_index>
    17bc:	ffa78713          	addi	a4,a5,-6
    17c0:	001017b7          	lui	a5,0x101
    17c4:	64e7a823          	sw	a4,1616(a5) # 101650 <calc_ifm_index>
                calc_ofm_index++;
    17c8:	001017b7          	lui	a5,0x101
    17cc:	6547a783          	lw	a5,1620(a5) # 101654 <calc_ofm_index>
    17d0:	00178713          	addi	a4,a5,1
    17d4:	001017b7          	lui	a5,0x101
    17d8:	64e7aa23          	sw	a4,1620(a5) # 101654 <calc_ofm_index>
                if(calc_ofm_index > 3) calc_ofm_index -= 3;
    17dc:	001017b7          	lui	a5,0x101
    17e0:	6547a703          	lw	a4,1620(a5) # 101654 <calc_ofm_index>
    17e4:	00300793          	li	a5,3
    17e8:	00e7dc63          	ble	a4,a5,1800 <interlayer_conv_a+0xa60>
    17ec:	001017b7          	lui	a5,0x101
    17f0:	6547a783          	lw	a5,1620(a5) # 101654 <calc_ofm_index>
    17f4:	ffd78713          	addi	a4,a5,-3
    17f8:	001017b7          	lui	a5,0x101
    17fc:	64e7aa23          	sw	a4,1620(a5) # 101654 <calc_ofm_index>
                right_a_param->ifm_addr0 = fm_layer0_table_addr[calc_ifm_index]; // + conv_lb_pad_width;
    1800:	001017b7          	lui	a5,0x101
    1804:	6507a683          	lw	a3,1616(a5) # 101650 <calc_ifm_index>
    1808:	001007b7          	lui	a5,0x100
    180c:	0787a783          	lw	a5,120(a5) # 100078 <right_a_param>
    1810:	00100737          	lui	a4,0x100
    1814:	00269693          	slli	a3,a3,0x2
    1818:	0c470713          	addi	a4,a4,196 # 1000c4 <fm_layer0_table_addr>
    181c:	00e68733          	add	a4,a3,a4
    1820:	00072703          	lw	a4,0(a4)
    1824:	00e7aa23          	sw	a4,20(a5)
                right_a_param->ofm_addr = fm_layer1_table_addr[calc_ifm_index]; // + conv_rb_pad_width;
    1828:	001017b7          	lui	a5,0x101
    182c:	6507a683          	lw	a3,1616(a5) # 101650 <calc_ifm_index>
    1830:	001007b7          	lui	a5,0x100
    1834:	0787a783          	lw	a5,120(a5) # 100078 <right_a_param>
    1838:	00100737          	lui	a4,0x100
    183c:	00269693          	slli	a3,a3,0x2
    1840:	0e470713          	addi	a4,a4,228 # 1000e4 <fm_layer1_table_addr>
    1844:	00e68733          	add	a4,a3,a4
    1848:	00072703          	lw	a4,0(a4)
    184c:	00e7a823          	sw	a4,16(a5)
                conv_set(right_a_param);
    1850:	001007b7          	lui	a5,0x100
    1854:	0787a783          	lw	a5,120(a5) # 100078 <right_a_param>
    1858:	00078513          	mv	a0,a5
    185c:	6f4010ef          	jal	ra,2f50 <conv_set>
            }
        }

        // =====
        // Process 3: save 1 line of output feature map
        if(svmr_check())
    1860:	129010ef          	jal	ra,3188 <svmr_check>
    1864:	00050793          	mv	a5,a0
    1868:	02078a63          	beqz	a5,189c <interlayer_conv_a+0xafc>
        {
            svmr_line += 2;
    186c:	001007b7          	lui	a5,0x100
    1870:	0b47a783          	lw	a5,180(a5) # 1000b4 <svmr_line>
    1874:	00278713          	addi	a4,a5,2
    1878:	001007b7          	lui	a5,0x100
    187c:	0ae7aa23          	sw	a4,180(a5) # 1000b4 <svmr_line>
            if(svmr_line >= conv_fm_height)
    1880:	001007b7          	lui	a5,0x100
    1884:	0b47a703          	lw	a4,180(a5) # 1000b4 <svmr_line>
    1888:	001007b7          	lui	a5,0x100
    188c:	0547a783          	lw	a5,84(a5) # 100054 <conv_fm_height>
    1890:	10f75063          	ble	a5,a4,1990 <interlayer_conv_a+0xbf0>
            {
                break;
            }
            svmr_busy = 0;
    1894:	001007b7          	lui	a5,0x100
    1898:	0a07a823          	sw	zero,176(a5) # 1000b0 <svmr_busy>
        }
        if(svmr_line < calc_line)
    189c:	001007b7          	lui	a5,0x100
    18a0:	0b47a703          	lw	a4,180(a5) # 1000b4 <svmr_line>
    18a4:	001007b7          	lui	a5,0x100
    18a8:	0907a783          	lw	a5,144(a5) # 100090 <calc_line>
    18ac:	02f75063          	ble	a5,a4,18cc <interlayer_conv_a+0xb2c>
        {
            svmr_en = !svmr_busy;
    18b0:	001007b7          	lui	a5,0x100
    18b4:	0b07a783          	lw	a5,176(a5) # 1000b0 <svmr_busy>
    18b8:	0017b793          	seqz	a5,a5
    18bc:	0ff7f793          	andi	a5,a5,255
    18c0:	00078713          	mv	a4,a5
    18c4:	001007b7          	lui	a5,0x100
    18c8:	0ae7a623          	sw	a4,172(a5) # 1000ac <svmr_en>
        }
        if(svmr_en)
    18cc:	001007b7          	lui	a5,0x100
    18d0:	0ac7a783          	lw	a5,172(a5) # 1000ac <svmr_en>
    18d4:	8c078ae3          	beqz	a5,11a8 <interlayer_conv_a+0x408>
        {
            svmr_busy = 1;
    18d8:	001007b7          	lui	a5,0x100
    18dc:	00100713          	li	a4,1
    18e0:	0ae7a823          	sw	a4,176(a5) # 1000b0 <svmr_busy>
            svmr_en = 0;
    18e4:	001007b7          	lui	a5,0x100
    18e8:	0a07a623          	sw	zero,172(a5) # 1000ac <svmr_en>
            svmr_start();
    18ec:	089010ef          	jal	ra,3174 <svmr_start>
            // set parameters for next command
            svmr_index++;
    18f0:	001017b7          	lui	a5,0x101
    18f4:	6687a783          	lw	a5,1640(a5) # 101668 <svmr_index>
    18f8:	00178713          	addi	a4,a5,1
    18fc:	001017b7          	lui	a5,0x101
    1900:	66e7a423          	sw	a4,1640(a5) # 101668 <svmr_index>
            if(svmr_index > 3) svmr_index -= 3;
    1904:	001017b7          	lui	a5,0x101
    1908:	6687a703          	lw	a4,1640(a5) # 101668 <svmr_index>
    190c:	00300793          	li	a5,3
    1910:	00e7dc63          	ble	a4,a5,1928 <interlayer_conv_a+0xb88>
    1914:	001017b7          	lui	a5,0x101
    1918:	6687a783          	lw	a5,1640(a5) # 101668 <svmr_index>
    191c:	ffd78713          	addi	a4,a5,-3
    1920:	001017b7          	lui	a5,0x101
    1924:	66e7a423          	sw	a4,1640(a5) # 101668 <svmr_index>
            ofm_param->mr_addr = fm_layer5_table_addr[svmr_index];
    1928:	001017b7          	lui	a5,0x101
    192c:	6687a683          	lw	a3,1640(a5) # 101668 <svmr_index>
    1930:	001007b7          	lui	a5,0x100
    1934:	0247a783          	lw	a5,36(a5) # 100024 <ofm_param>
    1938:	00100737          	lui	a4,0x100
    193c:	00269693          	slli	a3,a3,0x2
    1940:	14070713          	addi	a4,a4,320 # 100140 <fm_layer5_table_addr>
    1944:	00e68733          	add	a4,a3,a4
    1948:	00072703          	lw	a4,0(a4)
    194c:	00e7a623          	sw	a4,12(a5)
            ofm_param->ddr_addr += (ofm_param->trans_len<<6);
    1950:	001007b7          	lui	a5,0x100
    1954:	0247a783          	lw	a5,36(a5) # 100024 <ofm_param>
    1958:	0007a683          	lw	a3,0(a5)
    195c:	001007b7          	lui	a5,0x100
    1960:	0247a783          	lw	a5,36(a5) # 100024 <ofm_param>
    1964:	0047a783          	lw	a5,4(a5)
    1968:	00679713          	slli	a4,a5,0x6
    196c:	001007b7          	lui	a5,0x100
    1970:	0247a783          	lw	a5,36(a5) # 100024 <ofm_param>
    1974:	00e68733          	add	a4,a3,a4
    1978:	00e7a023          	sw	a4,0(a5)
            svmr_set(ofm_param);
    197c:	001007b7          	lui	a5,0x100
    1980:	0247a783          	lw	a5,36(a5) # 100024 <ofm_param>
    1984:	00078513          	mv	a0,a5
    1988:	7c4010ef          	jal	ra,314c <svmr_set>
        if(ldmr_check())
    198c:	81dff06f          	j	11a8 <interlayer_conv_a+0x408>
                break;
    1990:	00000013          	nop
        }
    }
    // restore svmr/ldmr parameters
    ifm_param->ddr_addr = ldmr_ddr_addr;
    1994:	001007b7          	lui	a5,0x100
    1998:	03c7a783          	lw	a5,60(a5) # 10003c <ifm_param>
    199c:	fe042703          	lw	a4,-32(s0)
    19a0:	00e7a023          	sw	a4,0(a5)
    ofm_param->ddr_addr = svmr_ddr_addr;
    19a4:	001007b7          	lui	a5,0x100
    19a8:	0247a783          	lw	a5,36(a5) # 100024 <ofm_param>
    19ac:	fdc42703          	lw	a4,-36(s0)
    19b0:	00e7a023          	sw	a4,0(a5)
    wt_conv_param->ddr_addr = wt_ddr_addr;
    19b4:	001007b7          	lui	a5,0x100
    19b8:	0707a783          	lw	a5,112(a5) # 100070 <wt_conv_param>
    19bc:	fd842703          	lw	a4,-40(s0)
    19c0:	00e7a023          	sw	a4,0(a5)
    wt_conv_param->mr_addr = wt_mr_addr;
    19c4:	001007b7          	lui	a5,0x100
    19c8:	0707a783          	lw	a5,112(a5) # 100070 <wt_conv_param>
    19cc:	fd442703          	lw	a4,-44(s0)
    19d0:	00e7a623          	sw	a4,12(a5)
}
    19d4:	00000013          	nop
    19d8:	03c12083          	lw	ra,60(sp)
    19dc:	03812403          	lw	s0,56(sp)
    19e0:	04010113          	addi	sp,sp,64
    19e4:	00008067          	ret

000019e8 <interlayer_conv_b>:
// pc_svmr_param ofm_param;
// int conv_fm_height;
// int conv_ifm_offset;
// int conv_ch64;
void interlayer_conv_b()
{
    19e8:	fd010113          	addi	sp,sp,-48
    19ec:	02112623          	sw	ra,44(sp)
    19f0:	02812423          	sw	s0,40(sp)
    19f4:	03010413          	addi	s0,sp,48
    int i;
    // save the svmr/ldmr parameters
    int ldmr_ddr_addr = ifm_param->ddr_addr;
    19f8:	001007b7          	lui	a5,0x100
    19fc:	03c7a783          	lw	a5,60(a5) # 10003c <ifm_param>
    1a00:	0007a783          	lw	a5,0(a5)
    1a04:	fef42423          	sw	a5,-24(s0)
    int svmr_ddr_addr = ofm_param->ddr_addr;
    1a08:	001007b7          	lui	a5,0x100
    1a0c:	0247a783          	lw	a5,36(a5) # 100024 <ofm_param>
    1a10:	0007a783          	lw	a5,0(a5)
    1a14:	fef42223          	sw	a5,-28(s0)
    int wt_ddr_addr = wt_conv_param->ddr_addr;
    1a18:	001007b7          	lui	a5,0x100
    1a1c:	0707a783          	lw	a5,112(a5) # 100070 <wt_conv_param>
    1a20:	0007a783          	lw	a5,0(a5)
    1a24:	fef42023          	sw	a5,-32(s0)
    int wt_mr_addr = wt_conv_param->mr_addr;
    1a28:	001007b7          	lui	a5,0x100
    1a2c:	0707a783          	lw	a5,112(a5) # 100070 <wt_conv_param>
    1a30:	00c7a783          	lw	a5,12(a5)
    1a34:	fcf42e23          	sw	a5,-36(s0)

    calc_line = 0;
    1a38:	001007b7          	lui	a5,0x100
    1a3c:	0807a823          	sw	zero,144(a5) # 100090 <calc_line>
    calc_ifm_index = 1;
    1a40:	001017b7          	lui	a5,0x101
    1a44:	00100713          	li	a4,1
    1a48:	64e7a823          	sw	a4,1616(a5) # 101650 <calc_ifm_index>
    calc_ofm_index = 1;
    1a4c:	001017b7          	lui	a5,0x101
    1a50:	00100713          	li	a4,1
    1a54:	64e7aa23          	sw	a4,1620(a5) # 101654 <calc_ofm_index>

    // initilize weight and bias
    // load weight data
    ldmr_set(wt_dwc_param);
    1a58:	001007b7          	lui	a5,0x100
    1a5c:	0587a783          	lw	a5,88(a5) # 100058 <wt_dwc_param>
    1a60:	00078513          	mv	a0,a5
    1a64:	684010ef          	jal	ra,30e8 <ldmr_set>
    ldmr_start();
    1a68:	6a8010ef          	jal	ra,3110 <ldmr_start>

    if(conv_ch64)
    1a6c:	001007b7          	lui	a5,0x100
    1a70:	04c7a783          	lw	a5,76(a5) # 10004c <conv_ch64>
    1a74:	08078e63          	beqz	a5,1b10 <interlayer_conv_b+0x128>
    {
        for(i=0; i<8; i++)
    1a78:	fe042623          	sw	zero,-20(s0)
    1a7c:	0840006f          	j	1b00 <interlayer_conv_b+0x118>
        {
            ldmr_set(wt_conv_param);
    1a80:	001007b7          	lui	a5,0x100
    1a84:	0707a783          	lw	a5,112(a5) # 100070 <wt_conv_param>
    1a88:	00078513          	mv	a0,a5
    1a8c:	65c010ef          	jal	ra,30e8 <ldmr_set>
            while(!ldmr_check());
    1a90:	00000013          	nop
    1a94:	690010ef          	jal	ra,3124 <ldmr_check>
    1a98:	00050793          	mv	a5,a0
    1a9c:	fe078ce3          	beqz	a5,1a94 <interlayer_conv_b+0xac>
            ldmr_start();
    1aa0:	670010ef          	jal	ra,3110 <ldmr_start>
            wt_conv_param->ddr_addr += (wt_conv_param->trans_len << 6);
    1aa4:	001007b7          	lui	a5,0x100
    1aa8:	0707a783          	lw	a5,112(a5) # 100070 <wt_conv_param>
    1aac:	0007a683          	lw	a3,0(a5)
    1ab0:	001007b7          	lui	a5,0x100
    1ab4:	0707a783          	lw	a5,112(a5) # 100070 <wt_conv_param>
    1ab8:	0047a783          	lw	a5,4(a5)
    1abc:	00679713          	slli	a4,a5,0x6
    1ac0:	001007b7          	lui	a5,0x100
    1ac4:	0707a783          	lw	a5,112(a5) # 100070 <wt_conv_param>
    1ac8:	00e68733          	add	a4,a3,a4
    1acc:	00e7a023          	sw	a4,0(a5)
            wt_conv_param->mr_addr += 0x02000200;
    1ad0:	001007b7          	lui	a5,0x100
    1ad4:	0707a783          	lw	a5,112(a5) # 100070 <wt_conv_param>
    1ad8:	00c7a683          	lw	a3,12(a5)
    1adc:	001007b7          	lui	a5,0x100
    1ae0:	0707a783          	lw	a5,112(a5) # 100070 <wt_conv_param>
    1ae4:	02000737          	lui	a4,0x2000
    1ae8:	20070713          	addi	a4,a4,512 # 2000200 <CLINT+0x200>
    1aec:	00e68733          	add	a4,a3,a4
    1af0:	00e7a623          	sw	a4,12(a5)
        for(i=0; i<8; i++)
    1af4:	fec42783          	lw	a5,-20(s0)
    1af8:	00178793          	addi	a5,a5,1
    1afc:	fef42623          	sw	a5,-20(s0)
    1b00:	fec42703          	lw	a4,-20(s0)
    1b04:	00700793          	li	a5,7
    1b08:	f6e7dce3          	ble	a4,a5,1a80 <interlayer_conv_b+0x98>
    1b0c:	0280006f          	j	1b34 <interlayer_conv_b+0x14c>
        }
    }
    else
    {
        ldmr_set(wt_conv_param);
    1b10:	001007b7          	lui	a5,0x100
    1b14:	0707a783          	lw	a5,112(a5) # 100070 <wt_conv_param>
    1b18:	00078513          	mv	a0,a5
    1b1c:	5cc010ef          	jal	ra,30e8 <ldmr_set>
        while(!ldmr_check());
    1b20:	00000013          	nop
    1b24:	600010ef          	jal	ra,3124 <ldmr_check>
    1b28:	00050793          	mv	a5,a0
    1b2c:	fe078ce3          	beqz	a5,1b24 <interlayer_conv_b+0x13c>
        ldmr_start();
    1b30:	5e0010ef          	jal	ra,3110 <ldmr_start>
    }

    // load bias data
    ldmr_set(bias_dwc_param);
    1b34:	001007b7          	lui	a5,0x100
    1b38:	0447a783          	lw	a5,68(a5) # 100044 <bias_dwc_param>
    1b3c:	00078513          	mv	a0,a5
    1b40:	5a8010ef          	jal	ra,30e8 <ldmr_set>
    while(!ldmr_check());
    1b44:	00000013          	nop
    1b48:	5dc010ef          	jal	ra,3124 <ldmr_check>
    1b4c:	00050793          	mv	a5,a0
    1b50:	fe078ce3          	beqz	a5,1b48 <interlayer_conv_b+0x160>
    ldmr_start();
    1b54:	5bc010ef          	jal	ra,3110 <ldmr_start>

    ldmr_set(bias_conv_param);
    1b58:	001007b7          	lui	a5,0x100
    1b5c:	0187a783          	lw	a5,24(a5) # 100018 <bias_conv_param>
    1b60:	00078513          	mv	a0,a5
    1b64:	584010ef          	jal	ra,30e8 <ldmr_set>
    while(!ldmr_check());
    1b68:	00000013          	nop
    1b6c:	5b8010ef          	jal	ra,3124 <ldmr_check>
    1b70:	00050793          	mv	a5,a0
    1b74:	fe078ce3          	beqz	a5,1b6c <interlayer_conv_b+0x184>
    ldmr_start();
    1b78:	598010ef          	jal	ra,3110 <ldmr_start>

    // generated instruction stream
    // ==================================================================
    // load ifm 0
    // ==================================================================
    ifm_param->mr_addr = fm_cmdstream0_table_addr[1];
    1b7c:	001007b7          	lui	a5,0x100
    1b80:	03c7a783          	lw	a5,60(a5) # 10003c <ifm_param>
    1b84:	00100737          	lui	a4,0x100
    1b88:	18070713          	addi	a4,a4,384 # 100180 <fm_cmdstream0_table_addr>
    1b8c:	00472703          	lw	a4,4(a4)
    1b90:	00e7a623          	sw	a4,12(a5)
    ldmr_set(ifm_param);
    1b94:	001007b7          	lui	a5,0x100
    1b98:	03c7a783          	lw	a5,60(a5) # 10003c <ifm_param>
    1b9c:	00078513          	mv	a0,a5
    1ba0:	548010ef          	jal	ra,30e8 <ldmr_set>
    while(!ldmr_check());
    1ba4:	00000013          	nop
    1ba8:	57c010ef          	jal	ra,3124 <ldmr_check>
    1bac:	00050793          	mv	a5,a0
    1bb0:	fe078ce3          	beqz	a5,1ba8 <interlayer_conv_b+0x1c0>
    ldmr_start();
    1bb4:	55c010ef          	jal	ra,3110 <ldmr_start>

    // ==================================================================
    // calc right a and load ifm 1
    // ==================================================================
    ifm_param->ddr_addr += (ifm_param->trans_len << 6);
    1bb8:	001007b7          	lui	a5,0x100
    1bbc:	03c7a783          	lw	a5,60(a5) # 10003c <ifm_param>
    1bc0:	0007a683          	lw	a3,0(a5)
    1bc4:	001007b7          	lui	a5,0x100
    1bc8:	03c7a783          	lw	a5,60(a5) # 10003c <ifm_param>
    1bcc:	0047a783          	lw	a5,4(a5)
    1bd0:	00679713          	slli	a4,a5,0x6
    1bd4:	001007b7          	lui	a5,0x100
    1bd8:	03c7a783          	lw	a5,60(a5) # 10003c <ifm_param>
    1bdc:	00e68733          	add	a4,a3,a4
    1be0:	00e7a023          	sw	a4,0(a5)
    ifm_param->mr_addr = fm_cmdstream0_table_addr[2];
    1be4:	001007b7          	lui	a5,0x100
    1be8:	03c7a783          	lw	a5,60(a5) # 10003c <ifm_param>
    1bec:	00100737          	lui	a4,0x100
    1bf0:	18070713          	addi	a4,a4,384 # 100180 <fm_cmdstream0_table_addr>
    1bf4:	00872703          	lw	a4,8(a4)
    1bf8:	00e7a623          	sw	a4,12(a5)
    ldmr_set(ifm_param);
    1bfc:	001007b7          	lui	a5,0x100
    1c00:	03c7a783          	lw	a5,60(a5) # 10003c <ifm_param>
    1c04:	00078513          	mv	a0,a5
    1c08:	4e0010ef          	jal	ra,30e8 <ldmr_set>

    right_a_param->ifm_addr0 = fm_cmdstream0_table_addr[1] + conv_ifm_offset;
    1c0c:	001007b7          	lui	a5,0x100
    1c10:	18078793          	addi	a5,a5,384 # 100180 <fm_cmdstream0_table_addr>
    1c14:	0047a683          	lw	a3,4(a5)
    1c18:	001007b7          	lui	a5,0x100
    1c1c:	0747a703          	lw	a4,116(a5) # 100074 <conv_ifm_offset>
    1c20:	001007b7          	lui	a5,0x100
    1c24:	0787a783          	lw	a5,120(a5) # 100078 <right_a_param>
    1c28:	00e68733          	add	a4,a3,a4
    1c2c:	00e7aa23          	sw	a4,20(a5)
    right_a_param->ofm_addr = fm_cmdstream1_table_addr[1];
    1c30:	001007b7          	lui	a5,0x100
    1c34:	0787a783          	lw	a5,120(a5) # 100078 <right_a_param>
    1c38:	00100737          	lui	a4,0x100
    1c3c:	19470713          	addi	a4,a4,404 # 100194 <fm_cmdstream1_table_addr>
    1c40:	00472703          	lw	a4,4(a4)
    1c44:	00e7a823          	sw	a4,16(a5)
    conv_set(right_a_param);
    1c48:	001007b7          	lui	a5,0x100
    1c4c:	0787a783          	lw	a5,120(a5) # 100078 <right_a_param>
    1c50:	00078513          	mv	a0,a5
    1c54:	2fc010ef          	jal	ra,2f50 <conv_set>

    while(!ldmr_check());
    1c58:	00000013          	nop
    1c5c:	4c8010ef          	jal	ra,3124 <ldmr_check>
    1c60:	00050793          	mv	a5,a0
    1c64:	fe078ce3          	beqz	a5,1c5c <interlayer_conv_b+0x274>
    ldmr_start();
    1c68:	4a8010ef          	jal	ra,3110 <ldmr_start>
    conv_start();
    1c6c:	30c010ef          	jal	ra,2f78 <conv_start>

    // ==================================================================
    // calc right a
    // ==================================================================
    right_a_param->ifm_addr0 = fm_cmdstream0_table_addr[2] + conv_ifm_offset;
    1c70:	001007b7          	lui	a5,0x100
    1c74:	18078793          	addi	a5,a5,384 # 100180 <fm_cmdstream0_table_addr>
    1c78:	0087a683          	lw	a3,8(a5)
    1c7c:	001007b7          	lui	a5,0x100
    1c80:	0747a703          	lw	a4,116(a5) # 100074 <conv_ifm_offset>
    1c84:	001007b7          	lui	a5,0x100
    1c88:	0787a783          	lw	a5,120(a5) # 100078 <right_a_param>
    1c8c:	00e68733          	add	a4,a3,a4
    1c90:	00e7aa23          	sw	a4,20(a5)
    right_a_param->ofm_addr = fm_cmdstream1_table_addr[2];
    1c94:	001007b7          	lui	a5,0x100
    1c98:	0787a783          	lw	a5,120(a5) # 100078 <right_a_param>
    1c9c:	00100737          	lui	a4,0x100
    1ca0:	19470713          	addi	a4,a4,404 # 100194 <fm_cmdstream1_table_addr>
    1ca4:	00872703          	lw	a4,8(a4)
    1ca8:	00e7a823          	sw	a4,16(a5)
    conv_set(right_a_param);
    1cac:	001007b7          	lui	a5,0x100
    1cb0:	0787a783          	lw	a5,120(a5) # 100078 <right_a_param>
    1cb4:	00078513          	mv	a0,a5
    1cb8:	298010ef          	jal	ra,2f50 <conv_set>

    while(!ldmr_check());
    1cbc:	00000013          	nop
    1cc0:	464010ef          	jal	ra,3124 <ldmr_check>
    1cc4:	00050793          	mv	a5,a0
    1cc8:	fe078ce3          	beqz	a5,1cc0 <interlayer_conv_b+0x2d8>
    while(!intr_conv_act);
    1ccc:	00000013          	nop
    1cd0:	001017b7          	lui	a5,0x101
    1cd4:	62c7a783          	lw	a5,1580(a5) # 10162c <intr_conv_act>
    1cd8:	fe078ce3          	beqz	a5,1cd0 <interlayer_conv_b+0x2e8>
    intr_conv_act = 0;
    1cdc:	001017b7          	lui	a5,0x101
    1ce0:	6207a623          	sw	zero,1580(a5) # 10162c <intr_conv_act>
    conv_start();
    1ce4:	294010ef          	jal	ra,2f78 <conv_start>

    // set parameters to load ifm [line+2] and calc right b
    ifm_param->ddr_addr += (ifm_param->trans_len << 6);
    1ce8:	001007b7          	lui	a5,0x100
    1cec:	03c7a783          	lw	a5,60(a5) # 10003c <ifm_param>
    1cf0:	0007a683          	lw	a3,0(a5)
    1cf4:	001007b7          	lui	a5,0x100
    1cf8:	03c7a783          	lw	a5,60(a5) # 10003c <ifm_param>
    1cfc:	0047a783          	lw	a5,4(a5)
    1d00:	00679713          	slli	a4,a5,0x6
    1d04:	001007b7          	lui	a5,0x100
    1d08:	03c7a783          	lw	a5,60(a5) # 10003c <ifm_param>
    1d0c:	00e68733          	add	a4,a3,a4
    1d10:	00e7a023          	sw	a4,0(a5)
    ifm_param->mr_addr = fm_cmdstream0_table_addr[3];
    1d14:	001007b7          	lui	a5,0x100
    1d18:	03c7a783          	lw	a5,60(a5) # 10003c <ifm_param>
    1d1c:	00100737          	lui	a4,0x100
    1d20:	18070713          	addi	a4,a4,384 # 100180 <fm_cmdstream0_table_addr>
    1d24:	00c72703          	lw	a4,12(a4)
    1d28:	00e7a623          	sw	a4,12(a5)
    ldmr_set(ifm_param);
    1d2c:	001007b7          	lui	a5,0x100
    1d30:	03c7a783          	lw	a5,60(a5) # 10003c <ifm_param>
    1d34:	00078513          	mv	a0,a5
    1d38:	3b0010ef          	jal	ra,30e8 <ldmr_set>

    right_b_param->ifm_addr0 = 0x3e003e00;
    1d3c:	001007b7          	lui	a5,0x100
    1d40:	02c7a783          	lw	a5,44(a5) # 10002c <right_b_param>
    1d44:	3e004737          	lui	a4,0x3e004
    1d48:	e0070713          	addi	a4,a4,-512 # 3e003e00 <PS_CTRL_IF+0x1e001e00>
    1d4c:	00e7aa23          	sw	a4,20(a5)
    right_b_param->ifm_addr1 = fm_cmdstream1_table_addr[1];
    1d50:	001007b7          	lui	a5,0x100
    1d54:	02c7a783          	lw	a5,44(a5) # 10002c <right_b_param>
    1d58:	00100737          	lui	a4,0x100
    1d5c:	19470713          	addi	a4,a4,404 # 100194 <fm_cmdstream1_table_addr>
    1d60:	00472703          	lw	a4,4(a4)
    1d64:	00e7ac23          	sw	a4,24(a5)
    right_b_param->ifm_addr2 = fm_cmdstream1_table_addr[2];
    1d68:	001007b7          	lui	a5,0x100
    1d6c:	02c7a783          	lw	a5,44(a5) # 10002c <right_b_param>
    1d70:	00100737          	lui	a4,0x100
    1d74:	19470713          	addi	a4,a4,404 # 100194 <fm_cmdstream1_table_addr>
    1d78:	00872703          	lw	a4,8(a4)
    1d7c:	00e7ae23          	sw	a4,28(a5)
    dwcalc_set(right_b_param);
    1d80:	001007b7          	lui	a5,0x100
    1d84:	02c7a783          	lw	a5,44(a5) # 10002c <right_b_param>
    1d88:	00078513          	mv	a0,a5
    1d8c:	22c010ef          	jal	ra,2fb8 <dwcalc_set>

    while(!intr_conv_act);
    1d90:	00000013          	nop
    1d94:	001017b7          	lui	a5,0x101
    1d98:	62c7a783          	lw	a5,1580(a5) # 10162c <intr_conv_act>
    1d9c:	fe078ce3          	beqz	a5,1d94 <interlayer_conv_b+0x3ac>
    intr_conv_act = 0;
    1da0:	001017b7          	lui	a5,0x101
    1da4:	6207a623          	sw	zero,1580(a5) # 10162c <intr_conv_act>
    calc_ifm_index = 3;
    1da8:	001017b7          	lui	a5,0x101
    1dac:	00300713          	li	a4,3
    1db0:	64e7a823          	sw	a4,1616(a5) # 101650 <calc_ifm_index>
    calc_ofm_index = 1;
    1db4:	001017b7          	lui	a5,0x101
    1db8:	00100713          	li	a4,1
    1dbc:	64e7aa23          	sw	a4,1620(a5) # 101654 <calc_ofm_index>

    for(calc_line = 0; calc_line < conv_fm_height; calc_line++)
    1dc0:	001007b7          	lui	a5,0x100
    1dc4:	0807a823          	sw	zero,144(a5) # 100090 <calc_line>
    1dc8:	3780006f          	j	2140 <interlayer_conv_b+0x758>
    {
        // ==================================================================
        // load ifm [line+2] and calc right b [line]
        // ==================================================================
        if(calc_line < conv_fm_height-2)
    1dcc:	001007b7          	lui	a5,0x100
    1dd0:	0547a783          	lw	a5,84(a5) # 100054 <conv_fm_height>
    1dd4:	ffe78713          	addi	a4,a5,-2
    1dd8:	001007b7          	lui	a5,0x100
    1ddc:	0907a783          	lw	a5,144(a5) # 100090 <calc_line>
    1de0:	00e7d463          	ble	a4,a5,1de8 <interlayer_conv_b+0x400>
            ldmr_start();
    1de4:	32c010ef          	jal	ra,3110 <ldmr_start>
        dwcalc_start();
    1de8:	1f8010ef          	jal	ra,2fe0 <dwcalc_start>

        // ==================================================================
        // calc right c [line]
        // ==================================================================
        conv_set(right_c_param);
    1dec:	001007b7          	lui	a5,0x100
    1df0:	0287a783          	lw	a5,40(a5) # 100028 <right_c_param>
    1df4:	00078513          	mv	a0,a5
    1df8:	158010ef          	jal	ra,2f50 <conv_set>

        while(!intr_dwcalc_act);
    1dfc:	00000013          	nop
    1e00:	001017b7          	lui	a5,0x101
    1e04:	6307a783          	lw	a5,1584(a5) # 101630 <intr_dwcalc_act>
    1e08:	fe078ce3          	beqz	a5,1e00 <interlayer_conv_b+0x418>
        intr_dwcalc_act = 0;
    1e0c:	001017b7          	lui	a5,0x101
    1e10:	6207a823          	sw	zero,1584(a5) # 101630 <intr_dwcalc_act>
        if(calc_line < conv_fm_height-2)
    1e14:	001007b7          	lui	a5,0x100
    1e18:	0547a783          	lw	a5,84(a5) # 100054 <conv_fm_height>
    1e1c:	ffe78713          	addi	a4,a5,-2
    1e20:	001007b7          	lui	a5,0x100
    1e24:	0907a783          	lw	a5,144(a5) # 100090 <calc_line>
    1e28:	00e7da63          	ble	a4,a5,1e3c <interlayer_conv_b+0x454>
            while(!ldmr_check());
    1e2c:	00000013          	nop
    1e30:	2f4010ef          	jal	ra,3124 <ldmr_check>
    1e34:	00050793          	mv	a5,a0
    1e38:	fe078ce3          	beqz	a5,1e30 <interlayer_conv_b+0x448>
        conv_start();
    1e3c:	13c010ef          	jal	ra,2f78 <conv_start>

        // ==================================================================
        // trans data [line]
        // ==================================================================
        left_dt_param->src_addr = fm_cmdstream0_table_addr[calc_ofm_index];
    1e40:	001017b7          	lui	a5,0x101
    1e44:	6547a683          	lw	a3,1620(a5) # 101654 <calc_ofm_index>
    1e48:	001007b7          	lui	a5,0x100
    1e4c:	0407a783          	lw	a5,64(a5) # 100040 <left_dt_param>
    1e50:	00100737          	lui	a4,0x100
    1e54:	00269693          	slli	a3,a3,0x2
    1e58:	18070713          	addi	a4,a4,384 # 100180 <fm_cmdstream0_table_addr>
    1e5c:	00e68733          	add	a4,a3,a4
    1e60:	00072703          	lw	a4,0(a4)
    1e64:	00e7a623          	sw	a4,12(a5)
        dtrans_set(left_dt_param);
    1e68:	001007b7          	lui	a5,0x100
    1e6c:	0407a783          	lw	a5,64(a5) # 100040 <left_dt_param>
    1e70:	00078513          	mv	a0,a5
    1e74:	1ac010ef          	jal	ra,3020 <dtrans_set>

        while(!intr_conv_act);
    1e78:	00000013          	nop
    1e7c:	001017b7          	lui	a5,0x101
    1e80:	62c7a783          	lw	a5,1580(a5) # 10162c <intr_conv_act>
    1e84:	fe078ce3          	beqz	a5,1e7c <interlayer_conv_b+0x494>
        intr_conv_act = 0;
    1e88:	001017b7          	lui	a5,0x101
    1e8c:	6207a623          	sw	zero,1580(a5) # 10162c <intr_conv_act>
        dtrans_start();
    1e90:	1b8010ef          	jal	ra,3048 <dtrans_start>

        // ==================================================================
        // calc right a [line+2] and save [line]
        // ==================================================================
        right_a_param->ifm_addr0 = fm_cmdstream0_table_addr[calc_ifm_index] + conv_ifm_offset;
    1e94:	001017b7          	lui	a5,0x101
    1e98:	6507a703          	lw	a4,1616(a5) # 101650 <calc_ifm_index>
    1e9c:	001007b7          	lui	a5,0x100
    1ea0:	00271713          	slli	a4,a4,0x2
    1ea4:	18078793          	addi	a5,a5,384 # 100180 <fm_cmdstream0_table_addr>
    1ea8:	00f707b3          	add	a5,a4,a5
    1eac:	0007a683          	lw	a3,0(a5)
    1eb0:	001007b7          	lui	a5,0x100
    1eb4:	0747a703          	lw	a4,116(a5) # 100074 <conv_ifm_offset>
    1eb8:	001007b7          	lui	a5,0x100
    1ebc:	0787a783          	lw	a5,120(a5) # 100078 <right_a_param>
    1ec0:	00e68733          	add	a4,a3,a4
    1ec4:	00e7aa23          	sw	a4,20(a5)
        right_a_param->ofm_addr = fm_cmdstream1_table_addr[calc_ifm_index];
    1ec8:	001017b7          	lui	a5,0x101
    1ecc:	6507a683          	lw	a3,1616(a5) # 101650 <calc_ifm_index>
    1ed0:	001007b7          	lui	a5,0x100
    1ed4:	0787a783          	lw	a5,120(a5) # 100078 <right_a_param>
    1ed8:	00100737          	lui	a4,0x100
    1edc:	00269693          	slli	a3,a3,0x2
    1ee0:	19470713          	addi	a4,a4,404 # 100194 <fm_cmdstream1_table_addr>
    1ee4:	00e68733          	add	a4,a3,a4
    1ee8:	00072703          	lw	a4,0(a4)
    1eec:	00e7a823          	sw	a4,16(a5)
        conv_set(right_a_param);
    1ef0:	001007b7          	lui	a5,0x100
    1ef4:	0787a783          	lw	a5,120(a5) # 100078 <right_a_param>
    1ef8:	00078513          	mv	a0,a5
    1efc:	054010ef          	jal	ra,2f50 <conv_set>

        svmr_set(ofm_param);
    1f00:	001007b7          	lui	a5,0x100
    1f04:	0247a783          	lw	a5,36(a5) # 100024 <ofm_param>
    1f08:	00078513          	mv	a0,a5
    1f0c:	240010ef          	jal	ra,314c <svmr_set>
        ofm_param->ddr_addr += (ofm_param->trans_len << 6);
    1f10:	001007b7          	lui	a5,0x100
    1f14:	0247a783          	lw	a5,36(a5) # 100024 <ofm_param>
    1f18:	0007a683          	lw	a3,0(a5)
    1f1c:	001007b7          	lui	a5,0x100
    1f20:	0247a783          	lw	a5,36(a5) # 100024 <ofm_param>
    1f24:	0047a783          	lw	a5,4(a5)
    1f28:	00679713          	slli	a4,a5,0x6
    1f2c:	001007b7          	lui	a5,0x100
    1f30:	0247a783          	lw	a5,36(a5) # 100024 <ofm_param>
    1f34:	00e68733          	add	a4,a3,a4
    1f38:	00e7a023          	sw	a4,0(a5)

        while(!dtrans_check());
    1f3c:	00000013          	nop
    1f40:	11c010ef          	jal	ra,305c <dtrans_check>
    1f44:	00050793          	mv	a5,a0
    1f48:	fe078ce3          	beqz	a5,1f40 <interlayer_conv_b+0x558>
        if(calc_line < conv_fm_height-2)
    1f4c:	001007b7          	lui	a5,0x100
    1f50:	0547a783          	lw	a5,84(a5) # 100054 <conv_fm_height>
    1f54:	ffe78713          	addi	a4,a5,-2
    1f58:	001007b7          	lui	a5,0x100
    1f5c:	0907a783          	lw	a5,144(a5) # 100090 <calc_line>
    1f60:	00e7d463          	ble	a4,a5,1f68 <interlayer_conv_b+0x580>
            conv_start();
    1f64:	014010ef          	jal	ra,2f78 <conv_start>
        svmr_start();
    1f68:	20c010ef          	jal	ra,3174 <svmr_start>

        // prepare parameters of next command
        calc_ifm_index++;
    1f6c:	001017b7          	lui	a5,0x101
    1f70:	6507a783          	lw	a5,1616(a5) # 101650 <calc_ifm_index>
    1f74:	00178713          	addi	a4,a5,1
    1f78:	001017b7          	lui	a5,0x101
    1f7c:	64e7a823          	sw	a4,1616(a5) # 101650 <calc_ifm_index>
        if(calc_ifm_index > 3) calc_ifm_index = 1;
    1f80:	001017b7          	lui	a5,0x101
    1f84:	6507a703          	lw	a4,1616(a5) # 101650 <calc_ifm_index>
    1f88:	00300793          	li	a5,3
    1f8c:	00e7d863          	ble	a4,a5,1f9c <interlayer_conv_b+0x5b4>
    1f90:	001017b7          	lui	a5,0x101
    1f94:	00100713          	li	a4,1
    1f98:	64e7a823          	sw	a4,1616(a5) # 101650 <calc_ifm_index>
        ifm_param->ddr_addr += (ifm_param->trans_len << 6);
    1f9c:	001007b7          	lui	a5,0x100
    1fa0:	03c7a783          	lw	a5,60(a5) # 10003c <ifm_param>
    1fa4:	0007a683          	lw	a3,0(a5)
    1fa8:	001007b7          	lui	a5,0x100
    1fac:	03c7a783          	lw	a5,60(a5) # 10003c <ifm_param>
    1fb0:	0047a783          	lw	a5,4(a5)
    1fb4:	00679713          	slli	a4,a5,0x6
    1fb8:	001007b7          	lui	a5,0x100
    1fbc:	03c7a783          	lw	a5,60(a5) # 10003c <ifm_param>
    1fc0:	00e68733          	add	a4,a3,a4
    1fc4:	00e7a023          	sw	a4,0(a5)
        ifm_param->mr_addr = fm_cmdstream0_table_addr[calc_ifm_index];
    1fc8:	001017b7          	lui	a5,0x101
    1fcc:	6507a683          	lw	a3,1616(a5) # 101650 <calc_ifm_index>
    1fd0:	001007b7          	lui	a5,0x100
    1fd4:	03c7a783          	lw	a5,60(a5) # 10003c <ifm_param>
    1fd8:	00100737          	lui	a4,0x100
    1fdc:	00269693          	slli	a3,a3,0x2
    1fe0:	18070713          	addi	a4,a4,384 # 100180 <fm_cmdstream0_table_addr>
    1fe4:	00e68733          	add	a4,a3,a4
    1fe8:	00072703          	lw	a4,0(a4)
    1fec:	00e7a623          	sw	a4,12(a5)
        ldmr_set(ifm_param);
    1ff0:	001007b7          	lui	a5,0x100
    1ff4:	03c7a783          	lw	a5,60(a5) # 10003c <ifm_param>
    1ff8:	00078513          	mv	a0,a5
    1ffc:	0ec010ef          	jal	ra,30e8 <ldmr_set>

        calc_ofm_index++;
    2000:	001017b7          	lui	a5,0x101
    2004:	6547a783          	lw	a5,1620(a5) # 101654 <calc_ofm_index>
    2008:	00178713          	addi	a4,a5,1
    200c:	001017b7          	lui	a5,0x101
    2010:	64e7aa23          	sw	a4,1620(a5) # 101654 <calc_ofm_index>
        if(calc_ofm_index > 3) calc_ofm_index = 1;
    2014:	001017b7          	lui	a5,0x101
    2018:	6547a703          	lw	a4,1620(a5) # 101654 <calc_ofm_index>
    201c:	00300793          	li	a5,3
    2020:	00e7d863          	ble	a4,a5,2030 <interlayer_conv_b+0x648>
    2024:	001017b7          	lui	a5,0x101
    2028:	00100713          	li	a4,1
    202c:	64e7aa23          	sw	a4,1620(a5) # 101654 <calc_ofm_index>
        right_b_param->ifm_addr0 = fm_cmdstream1_table_addr[calc_ofm_index-1];
    2030:	001017b7          	lui	a5,0x101
    2034:	6547a783          	lw	a5,1620(a5) # 101654 <calc_ofm_index>
    2038:	fff78693          	addi	a3,a5,-1
    203c:	001007b7          	lui	a5,0x100
    2040:	02c7a783          	lw	a5,44(a5) # 10002c <right_b_param>
    2044:	00100737          	lui	a4,0x100
    2048:	00269693          	slli	a3,a3,0x2
    204c:	19470713          	addi	a4,a4,404 # 100194 <fm_cmdstream1_table_addr>
    2050:	00e68733          	add	a4,a3,a4
    2054:	00072703          	lw	a4,0(a4)
    2058:	00e7aa23          	sw	a4,20(a5)
        right_b_param->ifm_addr1 = fm_cmdstream1_table_addr[calc_ofm_index];
    205c:	001017b7          	lui	a5,0x101
    2060:	6547a683          	lw	a3,1620(a5) # 101654 <calc_ofm_index>
    2064:	001007b7          	lui	a5,0x100
    2068:	02c7a783          	lw	a5,44(a5) # 10002c <right_b_param>
    206c:	00100737          	lui	a4,0x100
    2070:	00269693          	slli	a3,a3,0x2
    2074:	19470713          	addi	a4,a4,404 # 100194 <fm_cmdstream1_table_addr>
    2078:	00e68733          	add	a4,a3,a4
    207c:	00072703          	lw	a4,0(a4)
    2080:	00e7ac23          	sw	a4,24(a5)
        right_b_param->ifm_addr2 = fm_cmdstream1_table_addr[calc_ofm_index+1];
    2084:	001017b7          	lui	a5,0x101
    2088:	6547a783          	lw	a5,1620(a5) # 101654 <calc_ofm_index>
    208c:	00178693          	addi	a3,a5,1
    2090:	001007b7          	lui	a5,0x100
    2094:	02c7a783          	lw	a5,44(a5) # 10002c <right_b_param>
    2098:	00100737          	lui	a4,0x100
    209c:	00269693          	slli	a3,a3,0x2
    20a0:	19470713          	addi	a4,a4,404 # 100194 <fm_cmdstream1_table_addr>
    20a4:	00e68733          	add	a4,a3,a4
    20a8:	00072703          	lw	a4,0(a4)
    20ac:	00e7ae23          	sw	a4,28(a5)
        if(calc_line == conv_fm_height-2) right_b_param->ifm_addr2 = 0x3e003e00;
    20b0:	001007b7          	lui	a5,0x100
    20b4:	0547a783          	lw	a5,84(a5) # 100054 <conv_fm_height>
    20b8:	ffe78713          	addi	a4,a5,-2
    20bc:	001007b7          	lui	a5,0x100
    20c0:	0907a783          	lw	a5,144(a5) # 100090 <calc_line>
    20c4:	00f71c63          	bne	a4,a5,20dc <interlayer_conv_b+0x6f4>
    20c8:	001007b7          	lui	a5,0x100
    20cc:	02c7a783          	lw	a5,44(a5) # 10002c <right_b_param>
    20d0:	3e004737          	lui	a4,0x3e004
    20d4:	e0070713          	addi	a4,a4,-512 # 3e003e00 <PS_CTRL_IF+0x1e001e00>
    20d8:	00e7ae23          	sw	a4,28(a5)
        dwcalc_set(right_b_param);
    20dc:	001007b7          	lui	a5,0x100
    20e0:	02c7a783          	lw	a5,44(a5) # 10002c <right_b_param>
    20e4:	00078513          	mv	a0,a5
    20e8:	6d1000ef          	jal	ra,2fb8 <dwcalc_set>

        while(!svmr_check());
    20ec:	00000013          	nop
    20f0:	098010ef          	jal	ra,3188 <svmr_check>
    20f4:	00050793          	mv	a5,a0
    20f8:	fe078ce3          	beqz	a5,20f0 <interlayer_conv_b+0x708>
        if(calc_line < conv_fm_height-2)
    20fc:	001007b7          	lui	a5,0x100
    2100:	0547a783          	lw	a5,84(a5) # 100054 <conv_fm_height>
    2104:	ffe78713          	addi	a4,a5,-2
    2108:	001007b7          	lui	a5,0x100
    210c:	0907a783          	lw	a5,144(a5) # 100090 <calc_line>
    2110:	00e7de63          	ble	a4,a5,212c <interlayer_conv_b+0x744>
        {
            while(!intr_conv_act);
    2114:	00000013          	nop
    2118:	001017b7          	lui	a5,0x101
    211c:	62c7a783          	lw	a5,1580(a5) # 10162c <intr_conv_act>
    2120:	fe078ce3          	beqz	a5,2118 <interlayer_conv_b+0x730>
            intr_conv_act = 0;
    2124:	001017b7          	lui	a5,0x101
    2128:	6207a623          	sw	zero,1580(a5) # 10162c <intr_conv_act>
    for(calc_line = 0; calc_line < conv_fm_height; calc_line++)
    212c:	001007b7          	lui	a5,0x100
    2130:	0907a783          	lw	a5,144(a5) # 100090 <calc_line>
    2134:	00178713          	addi	a4,a5,1
    2138:	001007b7          	lui	a5,0x100
    213c:	08e7a823          	sw	a4,144(a5) # 100090 <calc_line>
    2140:	001007b7          	lui	a5,0x100
    2144:	0907a703          	lw	a4,144(a5) # 100090 <calc_line>
    2148:	001007b7          	lui	a5,0x100
    214c:	0547a783          	lw	a5,84(a5) # 100054 <conv_fm_height>
    2150:	c6f74ee3          	blt	a4,a5,1dcc <interlayer_conv_b+0x3e4>
        }
    }
    // restore svmr/ldmr parameters
    ifm_param->ddr_addr = ldmr_ddr_addr;
    2154:	001007b7          	lui	a5,0x100
    2158:	03c7a783          	lw	a5,60(a5) # 10003c <ifm_param>
    215c:	fe842703          	lw	a4,-24(s0)
    2160:	00e7a023          	sw	a4,0(a5)
    ofm_param->ddr_addr = svmr_ddr_addr;
    2164:	001007b7          	lui	a5,0x100
    2168:	0247a783          	lw	a5,36(a5) # 100024 <ofm_param>
    216c:	fe442703          	lw	a4,-28(s0)
    2170:	00e7a023          	sw	a4,0(a5)
    wt_conv_param->ddr_addr = wt_ddr_addr;
    2174:	001007b7          	lui	a5,0x100
    2178:	0707a783          	lw	a5,112(a5) # 100070 <wt_conv_param>
    217c:	fe042703          	lw	a4,-32(s0)
    2180:	00e7a023          	sw	a4,0(a5)
    wt_conv_param->mr_addr = wt_mr_addr;
    2184:	001007b7          	lui	a5,0x100
    2188:	0707a783          	lw	a5,112(a5) # 100070 <wt_conv_param>
    218c:	fdc42703          	lw	a4,-36(s0)
    2190:	00e7a623          	sw	a4,12(a5)
}
    2194:	00000013          	nop
    2198:	02c12083          	lw	ra,44(sp)
    219c:	02812403          	lw	s0,40(sp)
    21a0:	03010113          	addi	sp,sp,48
    21a4:	00008067          	ret

000021a8 <trans_fmt>:
// pc_ldmr_param ifm_param;
// pc_svmr_param ofm_param;
// pc_ftrans_param ftrans_param;
// int conv_fm_height;
void trans_fmt()
{
    21a8:	fe010113          	addi	sp,sp,-32
    21ac:	00112e23          	sw	ra,28(sp)
    21b0:	00812c23          	sw	s0,24(sp)
    21b4:	02010413          	addi	s0,sp,32
    int i;
    // save the svmr/ldmr parameters
    int ldmr_ddr_addr = ifm_param->ddr_addr;
    21b8:	001007b7          	lui	a5,0x100
    21bc:	03c7a783          	lw	a5,60(a5) # 10003c <ifm_param>
    21c0:	0007a783          	lw	a5,0(a5)
    21c4:	fef42423          	sw	a5,-24(s0)
    int svmr_ddr_addr = ofm_param->ddr_addr;
    21c8:	001007b7          	lui	a5,0x100
    21cc:	0247a783          	lw	a5,36(a5) # 100024 <ofm_param>
    21d0:	0007a783          	lw	a5,0(a5)
    21d4:	fef42223          	sw	a5,-28(s0)

    for(i = 0; i < conv_fm_height; i++)
    21d8:	fe042623          	sw	zero,-20(s0)
    21dc:	0d40006f          	j	22b0 <trans_fmt+0x108>
    {
        // ldmr line
        ldmr_set(ifm_param);
    21e0:	001007b7          	lui	a5,0x100
    21e4:	03c7a783          	lw	a5,60(a5) # 10003c <ifm_param>
    21e8:	00078513          	mv	a0,a5
    21ec:	6fd000ef          	jal	ra,30e8 <ldmr_set>
        ldmr_start();
    21f0:	721000ef          	jal	ra,3110 <ldmr_start>
        ifm_param->ddr_addr += (ifm_param->trans_len << 6);
    21f4:	001007b7          	lui	a5,0x100
    21f8:	03c7a783          	lw	a5,60(a5) # 10003c <ifm_param>
    21fc:	0007a683          	lw	a3,0(a5)
    2200:	001007b7          	lui	a5,0x100
    2204:	03c7a783          	lw	a5,60(a5) # 10003c <ifm_param>
    2208:	0047a783          	lw	a5,4(a5)
    220c:	00679713          	slli	a4,a5,0x6
    2210:	001007b7          	lui	a5,0x100
    2214:	03c7a783          	lw	a5,60(a5) # 10003c <ifm_param>
    2218:	00e68733          	add	a4,a3,a4
    221c:	00e7a023          	sw	a4,0(a5)
        while(!ldmr_check());
    2220:	00000013          	nop
    2224:	701000ef          	jal	ra,3124 <ldmr_check>
    2228:	00050793          	mv	a5,a0
    222c:	fe078ce3          	beqz	a5,2224 <trans_fmt+0x7c>

        // format translation
        ftrans_set(ftrans_param);
    2230:	001007b7          	lui	a5,0x100
    2234:	06c7a783          	lw	a5,108(a5) # 10006c <ftrans_param>
    2238:	00078513          	mv	a0,a5
    223c:	649000ef          	jal	ra,3084 <ftrans_set>
        ftrans_start();
    2240:	66d000ef          	jal	ra,30ac <ftrans_start>
        while(!ftrans_check());
    2244:	00000013          	nop
    2248:	679000ef          	jal	ra,30c0 <ftrans_check>
    224c:	00050793          	mv	a5,a0
    2250:	fe078ce3          	beqz	a5,2248 <trans_fmt+0xa0>

        // svmr line
        svmr_set(ofm_param);
    2254:	001007b7          	lui	a5,0x100
    2258:	0247a783          	lw	a5,36(a5) # 100024 <ofm_param>
    225c:	00078513          	mv	a0,a5
    2260:	6ed000ef          	jal	ra,314c <svmr_set>
        svmr_start();
    2264:	711000ef          	jal	ra,3174 <svmr_start>
        ofm_param->ddr_addr += (ofm_param->trans_len << 6);
    2268:	001007b7          	lui	a5,0x100
    226c:	0247a783          	lw	a5,36(a5) # 100024 <ofm_param>
    2270:	0007a683          	lw	a3,0(a5)
    2274:	001007b7          	lui	a5,0x100
    2278:	0247a783          	lw	a5,36(a5) # 100024 <ofm_param>
    227c:	0047a783          	lw	a5,4(a5)
    2280:	00679713          	slli	a4,a5,0x6
    2284:	001007b7          	lui	a5,0x100
    2288:	0247a783          	lw	a5,36(a5) # 100024 <ofm_param>
    228c:	00e68733          	add	a4,a3,a4
    2290:	00e7a023          	sw	a4,0(a5)
        while(!svmr_check());
    2294:	00000013          	nop
    2298:	6f1000ef          	jal	ra,3188 <svmr_check>
    229c:	00050793          	mv	a5,a0
    22a0:	fe078ce3          	beqz	a5,2298 <trans_fmt+0xf0>
    for(i = 0; i < conv_fm_height; i++)
    22a4:	fec42783          	lw	a5,-20(s0)
    22a8:	00178793          	addi	a5,a5,1
    22ac:	fef42623          	sw	a5,-20(s0)
    22b0:	001007b7          	lui	a5,0x100
    22b4:	0547a783          	lw	a5,84(a5) # 100054 <conv_fm_height>
    22b8:	fec42703          	lw	a4,-20(s0)
    22bc:	f2f742e3          	blt	a4,a5,21e0 <trans_fmt+0x38>
    }
    // restore svmr/ldmr parameters
    ifm_param->ddr_addr = ldmr_ddr_addr;
    22c0:	001007b7          	lui	a5,0x100
    22c4:	03c7a783          	lw	a5,60(a5) # 10003c <ifm_param>
    22c8:	fe842703          	lw	a4,-24(s0)
    22cc:	00e7a023          	sw	a4,0(a5)
    ofm_param->ddr_addr = svmr_ddr_addr;
    22d0:	001007b7          	lui	a5,0x100
    22d4:	0247a783          	lw	a5,36(a5) # 100024 <ofm_param>
    22d8:	fe442703          	lw	a4,-28(s0)
    22dc:	00e7a023          	sw	a4,0(a5)
}
    22e0:	00000013          	nop
    22e4:	01c12083          	lw	ra,28(sp)
    22e8:	01812403          	lw	s0,24(sp)
    22ec:	02010113          	addi	sp,sp,32
    22f0:	00008067          	ret

000022f4 <convf>:
// dtrans_param = &g_convf_dt;
// ftrans_param = &g_convf_ft;
// conv_param = &g_convf;
// conv_fm_height = g_convf_fm_height;
void convf()
{
    22f4:	fe010113          	addi	sp,sp,-32
    22f8:	00112e23          	sw	ra,28(sp)
    22fc:	00812c23          	sw	s0,24(sp)
    2300:	02010413          	addi	s0,sp,32
    // save the svmr/ldmr parameters
    int ldmr_ddr_addr = ifm_param->ddr_addr;
    2304:	001007b7          	lui	a5,0x100
    2308:	03c7a783          	lw	a5,60(a5) # 10003c <ifm_param>
    230c:	0007a783          	lw	a5,0(a5)
    2310:	fef42623          	sw	a5,-20(s0)
    int svmr_ddr_addr = ofm_param->ddr_addr;
    2314:	001007b7          	lui	a5,0x100
    2318:	0247a783          	lw	a5,36(a5) # 100024 <ofm_param>
    231c:	0007a783          	lw	a5,0(a5)
    2320:	fef42423          	sw	a5,-24(s0)

    calc_line = 0;
    2324:	001007b7          	lui	a5,0x100
    2328:	0807a823          	sw	zero,144(a5) # 100090 <calc_line>
    calc_ifm_index = 1;
    232c:	001017b7          	lui	a5,0x101
    2330:	00100713          	li	a4,1
    2334:	64e7a823          	sw	a4,1616(a5) # 101650 <calc_ifm_index>

    // initilize weight, bias, and partial feature map
    // load weight data
    ldmr_set(wt_conv_param);
    2338:	001007b7          	lui	a5,0x100
    233c:	0707a783          	lw	a5,112(a5) # 100070 <wt_conv_param>
    2340:	00078513          	mv	a0,a5
    2344:	5a5000ef          	jal	ra,30e8 <ldmr_set>
    ldmr_start();
    2348:	5c9000ef          	jal	ra,3110 <ldmr_start>
    while(!ldmr_check());
    234c:	00000013          	nop
    2350:	5d5000ef          	jal	ra,3124 <ldmr_check>
    2354:	00050793          	mv	a5,a0
    2358:	fe078ce3          	beqz	a5,2350 <convf+0x5c>

    // load bias data
    ldmr_set(bias_conv_param);
    235c:	001007b7          	lui	a5,0x100
    2360:	0187a783          	lw	a5,24(a5) # 100018 <bias_conv_param>
    2364:	00078513          	mv	a0,a5
    2368:	581000ef          	jal	ra,30e8 <ldmr_set>
    ldmr_start();
    236c:	5a5000ef          	jal	ra,3110 <ldmr_start>
    while(!ldmr_check());
    2370:	00000013          	nop
    2374:	5b1000ef          	jal	ra,3124 <ldmr_check>
    2378:	00050793          	mv	a5,a0
    237c:	fe078ce3          	beqz	a5,2374 <convf+0x80>

    // set width 20-24 of feature map as zeros
    dtrans_set(dtrans_param);
    2380:	001007b7          	lui	a5,0x100
    2384:	01c7a783          	lw	a5,28(a5) # 10001c <dtrans_param>
    2388:	00078513          	mv	a0,a5
    238c:	495000ef          	jal	ra,3020 <dtrans_set>
    dtrans_start();
    2390:	4b9000ef          	jal	ra,3048 <dtrans_start>
    while(!dtrans_check());
    2394:	00000013          	nop
    2398:	4c5000ef          	jal	ra,305c <dtrans_check>
    239c:	00050793          	mv	a5,a0
    23a0:	fe078ce3          	beqz	a5,2398 <convf+0xa4>

    // load 1st line of feature map
    // load width 0-20 of feature map
    ldmr_set(ifm_param);
    23a4:	001007b7          	lui	a5,0x100
    23a8:	03c7a783          	lw	a5,60(a5) # 10003c <ifm_param>
    23ac:	00078513          	mv	a0,a5
    23b0:	539000ef          	jal	ra,30e8 <ldmr_set>
    ldmr_start();
    23b4:	55d000ef          	jal	ra,3110 <ldmr_start>
    while(!ldmr_check());
    23b8:	00000013          	nop
    23bc:	569000ef          	jal	ra,3124 <ldmr_check>
    23c0:	00050793          	mv	a5,a0
    23c4:	fe078ce3          	beqz	a5,23bc <convf+0xc8>

    // transform the format of feature map, from ch64 mode to ch8 mode
    ftrans_param->dest_addr = fm_cmdstream1_table_addr[1];
    23c8:	001007b7          	lui	a5,0x100
    23cc:	06c7a783          	lw	a5,108(a5) # 10006c <ftrans_param>
    23d0:	00100737          	lui	a4,0x100
    23d4:	19470713          	addi	a4,a4,404 # 100194 <fm_cmdstream1_table_addr>
    23d8:	00472703          	lw	a4,4(a4)
    23dc:	00e7a623          	sw	a4,12(a5)
    ftrans_set(ftrans_param);
    23e0:	001007b7          	lui	a5,0x100
    23e4:	06c7a783          	lw	a5,108(a5) # 10006c <ftrans_param>
    23e8:	00078513          	mv	a0,a5
    23ec:	499000ef          	jal	ra,3084 <ftrans_set>
    ftrans_start();
    23f0:	4bd000ef          	jal	ra,30ac <ftrans_start>
    while(!ftrans_check());
    23f4:	00000013          	nop
    23f8:	4c9000ef          	jal	ra,30c0 <ftrans_check>
    23fc:	00050793          	mv	a5,a0
    2400:	fe078ce3          	beqz	a5,23f8 <convf+0x104>

    // initialize parameters

    for(calc_line = 0; calc_line < conv_fm_height; calc_line++)
    2404:	001007b7          	lui	a5,0x100
    2408:	0807a823          	sw	zero,144(a5) # 100090 <calc_line>
    240c:	2500006f          	j	265c <convf+0x368>
    {
        // load feature map
        if(calc_line < conv_fm_height-1)
    2410:	001007b7          	lui	a5,0x100
    2414:	0547a783          	lw	a5,84(a5) # 100054 <conv_fm_height>
    2418:	fff78713          	addi	a4,a5,-1
    241c:	001007b7          	lui	a5,0x100
    2420:	0907a783          	lw	a5,144(a5) # 100090 <calc_line>
    2424:	0ae7d263          	ble	a4,a5,24c8 <convf+0x1d4>
        {
            // load 1 line of feature map
            ifm_param->ddr_addr += (ifm_param->trans_len << 6);
    2428:	001007b7          	lui	a5,0x100
    242c:	03c7a783          	lw	a5,60(a5) # 10003c <ifm_param>
    2430:	0007a683          	lw	a3,0(a5)
    2434:	001007b7          	lui	a5,0x100
    2438:	03c7a783          	lw	a5,60(a5) # 10003c <ifm_param>
    243c:	0047a783          	lw	a5,4(a5)
    2440:	00679713          	slli	a4,a5,0x6
    2444:	001007b7          	lui	a5,0x100
    2448:	03c7a783          	lw	a5,60(a5) # 10003c <ifm_param>
    244c:	00e68733          	add	a4,a3,a4
    2450:	00e7a023          	sw	a4,0(a5)
            ldmr_set(ifm_param);
    2454:	001007b7          	lui	a5,0x100
    2458:	03c7a783          	lw	a5,60(a5) # 10003c <ifm_param>
    245c:	00078513          	mv	a0,a5
    2460:	489000ef          	jal	ra,30e8 <ldmr_set>
            ldmr_start();
    2464:	4ad000ef          	jal	ra,3110 <ldmr_start>
            while(!ldmr_check());
    2468:	00000013          	nop
    246c:	4b9000ef          	jal	ra,3124 <ldmr_check>
    2470:	00050793          	mv	a5,a0
    2474:	fe078ce3          	beqz	a5,246c <convf+0x178>

            // transform the format of feature map, from ch64 mode to ch8 mode
            ftrans_param->dest_addr = fm_cmdstream1_table_addr[calc_ifm_index+1]; // calc_ifm_index+1
    2478:	001017b7          	lui	a5,0x101
    247c:	6507a783          	lw	a5,1616(a5) # 101650 <calc_ifm_index>
    2480:	00178693          	addi	a3,a5,1
    2484:	001007b7          	lui	a5,0x100
    2488:	06c7a783          	lw	a5,108(a5) # 10006c <ftrans_param>
    248c:	00100737          	lui	a4,0x100
    2490:	00269693          	slli	a3,a3,0x2
    2494:	19470713          	addi	a4,a4,404 # 100194 <fm_cmdstream1_table_addr>
    2498:	00e68733          	add	a4,a3,a4
    249c:	00072703          	lw	a4,0(a4)
    24a0:	00e7a623          	sw	a4,12(a5)
            ftrans_set(ftrans_param);
    24a4:	001007b7          	lui	a5,0x100
    24a8:	06c7a783          	lw	a5,108(a5) # 10006c <ftrans_param>
    24ac:	00078513          	mv	a0,a5
    24b0:	3d5000ef          	jal	ra,3084 <ftrans_set>
            ftrans_start();
    24b4:	3f9000ef          	jal	ra,30ac <ftrans_start>
            while(!ftrans_check());
    24b8:	00000013          	nop
    24bc:	405000ef          	jal	ra,30c0 <ftrans_check>
    24c0:	00050793          	mv	a5,a0
    24c4:	fe078ce3          	beqz	a5,24bc <convf+0x1c8>
        }

        // make 3x3 convolution
        conv_param->ifm_addr0 = fm_cmdstream1_table_addr[calc_ifm_index-1];
    24c8:	001017b7          	lui	a5,0x101
    24cc:	6507a783          	lw	a5,1616(a5) # 101650 <calc_ifm_index>
    24d0:	fff78693          	addi	a3,a5,-1
    24d4:	001007b7          	lui	a5,0x100
    24d8:	0387a783          	lw	a5,56(a5) # 100038 <conv_param>
    24dc:	00100737          	lui	a4,0x100
    24e0:	00269693          	slli	a3,a3,0x2
    24e4:	19470713          	addi	a4,a4,404 # 100194 <fm_cmdstream1_table_addr>
    24e8:	00e68733          	add	a4,a3,a4
    24ec:	00072703          	lw	a4,0(a4)
    24f0:	00e7aa23          	sw	a4,20(a5)
        conv_param->ifm_addr1 = fm_cmdstream1_table_addr[calc_ifm_index];
    24f4:	001017b7          	lui	a5,0x101
    24f8:	6507a683          	lw	a3,1616(a5) # 101650 <calc_ifm_index>
    24fc:	001007b7          	lui	a5,0x100
    2500:	0387a783          	lw	a5,56(a5) # 100038 <conv_param>
    2504:	00100737          	lui	a4,0x100
    2508:	00269693          	slli	a3,a3,0x2
    250c:	19470713          	addi	a4,a4,404 # 100194 <fm_cmdstream1_table_addr>
    2510:	00e68733          	add	a4,a3,a4
    2514:	00072703          	lw	a4,0(a4)
    2518:	00e7ac23          	sw	a4,24(a5)
        conv_param->ifm_addr2 = fm_cmdstream1_table_addr[calc_ifm_index+1];
    251c:	001017b7          	lui	a5,0x101
    2520:	6507a783          	lw	a5,1616(a5) # 101650 <calc_ifm_index>
    2524:	00178693          	addi	a3,a5,1
    2528:	001007b7          	lui	a5,0x100
    252c:	0387a783          	lw	a5,56(a5) # 100038 <conv_param>
    2530:	00100737          	lui	a4,0x100
    2534:	00269693          	slli	a3,a3,0x2
    2538:	19470713          	addi	a4,a4,404 # 100194 <fm_cmdstream1_table_addr>
    253c:	00e68733          	add	a4,a3,a4
    2540:	00072703          	lw	a4,0(a4)
    2544:	00e7ae23          	sw	a4,28(a5)
        if(calc_line == 0) conv_param->ifm_addr0 = 0x3e003e00;
    2548:	001007b7          	lui	a5,0x100
    254c:	0907a783          	lw	a5,144(a5) # 100090 <calc_line>
    2550:	00079c63          	bnez	a5,2568 <convf+0x274>
    2554:	001007b7          	lui	a5,0x100
    2558:	0387a783          	lw	a5,56(a5) # 100038 <conv_param>
    255c:	3e004737          	lui	a4,0x3e004
    2560:	e0070713          	addi	a4,a4,-512 # 3e003e00 <PS_CTRL_IF+0x1e001e00>
    2564:	00e7aa23          	sw	a4,20(a5)
        if(calc_line == conv_fm_height-1) conv_param->ifm_addr2 = 0x3e003e00;
    2568:	001007b7          	lui	a5,0x100
    256c:	0547a783          	lw	a5,84(a5) # 100054 <conv_fm_height>
    2570:	fff78713          	addi	a4,a5,-1
    2574:	001007b7          	lui	a5,0x100
    2578:	0907a783          	lw	a5,144(a5) # 100090 <calc_line>
    257c:	00f71c63          	bne	a4,a5,2594 <convf+0x2a0>
    2580:	001007b7          	lui	a5,0x100
    2584:	0387a783          	lw	a5,56(a5) # 100038 <conv_param>
    2588:	3e004737          	lui	a4,0x3e004
    258c:	e0070713          	addi	a4,a4,-512 # 3e003e00 <PS_CTRL_IF+0x1e001e00>
    2590:	00e7ae23          	sw	a4,28(a5)
        conv_set(conv_param);
    2594:	001007b7          	lui	a5,0x100
    2598:	0387a783          	lw	a5,56(a5) # 100038 <conv_param>
    259c:	00078513          	mv	a0,a5
    25a0:	1b1000ef          	jal	ra,2f50 <conv_set>
        conv_start();
    25a4:	1d5000ef          	jal	ra,2f78 <conv_start>
        while(!intr_conv_act);
    25a8:	00000013          	nop
    25ac:	001017b7          	lui	a5,0x101
    25b0:	62c7a783          	lw	a5,1580(a5) # 10162c <intr_conv_act>
    25b4:	fe078ce3          	beqz	a5,25ac <convf+0x2b8>
        intr_conv_act = 0;
    25b8:	001017b7          	lui	a5,0x101
    25bc:	6207a623          	sw	zero,1580(a5) # 10162c <intr_conv_act>

        // save 1 line of feature map to ddr
        svmr_set(ofm_param);
    25c0:	001007b7          	lui	a5,0x100
    25c4:	0247a783          	lw	a5,36(a5) # 100024 <ofm_param>
    25c8:	00078513          	mv	a0,a5
    25cc:	381000ef          	jal	ra,314c <svmr_set>
        ofm_param->ddr_addr += (ofm_param->trans_len << 6);
    25d0:	001007b7          	lui	a5,0x100
    25d4:	0247a783          	lw	a5,36(a5) # 100024 <ofm_param>
    25d8:	0007a683          	lw	a3,0(a5)
    25dc:	001007b7          	lui	a5,0x100
    25e0:	0247a783          	lw	a5,36(a5) # 100024 <ofm_param>
    25e4:	0047a783          	lw	a5,4(a5)
    25e8:	00679713          	slli	a4,a5,0x6
    25ec:	001007b7          	lui	a5,0x100
    25f0:	0247a783          	lw	a5,36(a5) # 100024 <ofm_param>
    25f4:	00e68733          	add	a4,a3,a4
    25f8:	00e7a023          	sw	a4,0(a5)
        svmr_start();
    25fc:	379000ef          	jal	ra,3174 <svmr_start>
        while(!svmr_check());
    2600:	00000013          	nop
    2604:	385000ef          	jal	ra,3188 <svmr_check>
    2608:	00050793          	mv	a5,a0
    260c:	fe078ce3          	beqz	a5,2604 <convf+0x310>

        // set next command
        calc_ifm_index++;
    2610:	001017b7          	lui	a5,0x101
    2614:	6507a783          	lw	a5,1616(a5) # 101650 <calc_ifm_index>
    2618:	00178713          	addi	a4,a5,1
    261c:	001017b7          	lui	a5,0x101
    2620:	64e7a823          	sw	a4,1616(a5) # 101650 <calc_ifm_index>
        if(calc_ifm_index>3) calc_ifm_index -= 3;
    2624:	001017b7          	lui	a5,0x101
    2628:	6507a703          	lw	a4,1616(a5) # 101650 <calc_ifm_index>
    262c:	00300793          	li	a5,3
    2630:	00e7dc63          	ble	a4,a5,2648 <convf+0x354>
    2634:	001017b7          	lui	a5,0x101
    2638:	6507a783          	lw	a5,1616(a5) # 101650 <calc_ifm_index>
    263c:	ffd78713          	addi	a4,a5,-3
    2640:	001017b7          	lui	a5,0x101
    2644:	64e7a823          	sw	a4,1616(a5) # 101650 <calc_ifm_index>
    for(calc_line = 0; calc_line < conv_fm_height; calc_line++)
    2648:	001007b7          	lui	a5,0x100
    264c:	0907a783          	lw	a5,144(a5) # 100090 <calc_line>
    2650:	00178713          	addi	a4,a5,1
    2654:	001007b7          	lui	a5,0x100
    2658:	08e7a823          	sw	a4,144(a5) # 100090 <calc_line>
    265c:	001007b7          	lui	a5,0x100
    2660:	0907a703          	lw	a4,144(a5) # 100090 <calc_line>
    2664:	001007b7          	lui	a5,0x100
    2668:	0547a783          	lw	a5,84(a5) # 100054 <conv_fm_height>
    266c:	daf742e3          	blt	a4,a5,2410 <convf+0x11c>
    }

    // restore the svmr/ldmr parameters
    ifm_param->ddr_addr = ldmr_ddr_addr;
    2670:	001007b7          	lui	a5,0x100
    2674:	03c7a783          	lw	a5,60(a5) # 10003c <ifm_param>
    2678:	fec42703          	lw	a4,-20(s0)
    267c:	00e7a023          	sw	a4,0(a5)
    ofm_param->ddr_addr = svmr_ddr_addr;
    2680:	001007b7          	lui	a5,0x100
    2684:	0247a783          	lw	a5,36(a5) # 100024 <ofm_param>
    2688:	fe842703          	lw	a4,-24(s0)
    268c:	00e7a023          	sw	a4,0(a5)
}
    2690:	00000013          	nop
    2694:	01c12083          	lw	ra,28(sp)
    2698:	01812403          	lw	s0,24(sp)
    269c:	02010113          	addi	sp,sp,32
    26a0:	00008067          	ret

000026a4 <shufflenet_v2>:

void shufflenet_v2()
{
    26a4:	fe010113          	addi	sp,sp,-32
    26a8:	00112e23          	sw	ra,28(sp)
    26ac:	00812c23          	sw	s0,24(sp)
    26b0:	02010413          	addi	s0,sp,32
    int i;

    conv_ch64 = 0;
    26b4:	001007b7          	lui	a5,0x100
    26b8:	0407a623          	sw	zero,76(a5) # 10004c <conv_ch64>
    if(PHASE_CONV1_IS_ACTIVE)
    {
        // CONV1 and Pool1
        wt_conv_param = &g_conv1_wt;
    26bc:	001007b7          	lui	a5,0x100
    26c0:	00101737          	lui	a4,0x101
    26c4:	b8c70713          	addi	a4,a4,-1140 # 100b8c <g_conv1_wt>
    26c8:	06e7a823          	sw	a4,112(a5) # 100070 <wt_conv_param>
        bias_conv_param = &g_conv1_bias;
    26cc:	001007b7          	lui	a5,0x100
    26d0:	00101737          	lui	a4,0x101
    26d4:	ba070713          	addi	a4,a4,-1120 # 100ba0 <g_conv1_bias>
    26d8:	00e7ac23          	sw	a4,24(a5) # 100018 <bias_conv_param>
        ifm_param = &g_conv1_ifm;
    26dc:	001007b7          	lui	a5,0x100
    26e0:	00101737          	lui	a4,0x101
    26e4:	b7870713          	addi	a4,a4,-1160 # 100b78 <g_conv1_ifm>
    26e8:	02e7ae23          	sw	a4,60(a5) # 10003c <ifm_param>
        conv_param = &g_conv1;
    26ec:	001007b7          	lui	a5,0x100
    26f0:	00100737          	lui	a4,0x100
    26f4:	1a870713          	addi	a4,a4,424 # 1001a8 <g_conv1>
    26f8:	02e7ac23          	sw	a4,56(a5) # 100038 <conv_param>
        pool1_param = &g_pool1;
    26fc:	001007b7          	lui	a5,0x100
    2700:	00100737          	lui	a4,0x100
    2704:	1c870713          	addi	a4,a4,456 # 1001c8 <g_pool1>
    2708:	00e7aa23          	sw	a4,20(a5) # 100014 <pool1_param>
        ofm_param = &g_conv1_ofm;
    270c:	001007b7          	lui	a5,0x100
    2710:	00101737          	lui	a4,0x101
    2714:	bb470713          	addi	a4,a4,-1100 # 100bb4 <g_conv1_ofm>
    2718:	02e7a223          	sw	a4,36(a5) # 100024 <ofm_param>
        conv_fm_height = g_conv1_fm_height;
    271c:	001017b7          	lui	a5,0x101
    2720:	66c7a703          	lw	a4,1644(a5) # 10166c <g_conv1_fm_height>
    2724:	001007b7          	lui	a5,0x100
    2728:	04e7aa23          	sw	a4,84(a5) # 100054 <conv_fm_height>
        conv1_pool1();
    272c:	c65fd0ef          	jal	ra,390 <conv1_pool1>
    }

    if(PHASE_BLK1_1_IS_ACTIVE)
    {
        // Blk1_1
        wt_dwc_param = &g_blk1_1_dwc_wt;
    2730:	001007b7          	lui	a5,0x100
    2734:	00101737          	lui	a4,0x101
    2738:	bd870713          	addi	a4,a4,-1064 # 100bd8 <g_blk1_1_dwc_wt>
    273c:	04e7ac23          	sw	a4,88(a5) # 100058 <wt_dwc_param>
        wt_conv_param = &g_blk1_1_conv_wt;
    2740:	001007b7          	lui	a5,0x100
    2744:	00101737          	lui	a4,0x101
    2748:	bec70713          	addi	a4,a4,-1044 # 100bec <g_blk1_1_conv_wt>
    274c:	06e7a823          	sw	a4,112(a5) # 100070 <wt_conv_param>
        bias_dwc_param = &g_blk1_1_dwc_bias;
    2750:	001007b7          	lui	a5,0x100
    2754:	00101737          	lui	a4,0x101
    2758:	c0070713          	addi	a4,a4,-1024 # 100c00 <g_blk1_1_dwc_bias>
    275c:	04e7a223          	sw	a4,68(a5) # 100044 <bias_dwc_param>
        bias_conv_param = &g_blk1_1_conv_bias;
    2760:	001007b7          	lui	a5,0x100
    2764:	00101737          	lui	a4,0x101
    2768:	c1470713          	addi	a4,a4,-1004 # 100c14 <g_blk1_1_conv_bias>
    276c:	00e7ac23          	sw	a4,24(a5) # 100018 <bias_conv_param>
        ifm_param = &g_blk1_1_ifm;
    2770:	001007b7          	lui	a5,0x100
    2774:	00101737          	lui	a4,0x101
    2778:	bc470713          	addi	a4,a4,-1084 # 100bc4 <g_blk1_1_ifm>
    277c:	02e7ae23          	sw	a4,60(a5) # 10003c <ifm_param>
        ofm_param = &g_blk1_1_ofm;
    2780:	001007b7          	lui	a5,0x100
    2784:	00101737          	lui	a4,0x101
    2788:	c2870713          	addi	a4,a4,-984 # 100c28 <g_blk1_1_ofm>
    278c:	02e7a223          	sw	a4,36(a5) # 100024 <ofm_param>
        right_a_param = &g_blk1_1_ra;
    2790:	001007b7          	lui	a5,0x100
    2794:	00100737          	lui	a4,0x100
    2798:	22870713          	addi	a4,a4,552 # 100228 <g_blk1_1_ra>
    279c:	06e7ac23          	sw	a4,120(a5) # 100078 <right_a_param>
        right_b_param = &g_blk1_1_rb;
    27a0:	001007b7          	lui	a5,0x100
    27a4:	00100737          	lui	a4,0x100
    27a8:	24870713          	addi	a4,a4,584 # 100248 <g_blk1_1_rb>
    27ac:	02e7a623          	sw	a4,44(a5) # 10002c <right_b_param>
        right_c_param = &g_blk1_1_rc;
    27b0:	001007b7          	lui	a5,0x100
    27b4:	00100737          	lui	a4,0x100
    27b8:	26870713          	addi	a4,a4,616 # 100268 <g_blk1_1_rc>
    27bc:	02e7a423          	sw	a4,40(a5) # 100028 <right_c_param>
        left_b_param = &g_blk1_1_lb;
    27c0:	001007b7          	lui	a5,0x100
    27c4:	00100737          	lui	a4,0x100
    27c8:	1e870713          	addi	a4,a4,488 # 1001e8 <g_blk1_1_lb>
    27cc:	04e7ae23          	sw	a4,92(a5) # 10005c <left_b_param>
        left_c_param = &g_blk1_1_lc;
    27d0:	001007b7          	lui	a5,0x100
    27d4:	00100737          	lui	a4,0x100
    27d8:	20870713          	addi	a4,a4,520 # 100208 <g_blk1_1_lc>
    27dc:	02e7a823          	sw	a4,48(a5) # 100030 <left_c_param>
        conv_fm_height = g_blk1_1_fm_height;
    27e0:	001017b7          	lui	a5,0x101
    27e4:	6707a703          	lw	a4,1648(a5) # 101670 <g_blk1_1_fm_height>
    27e8:	001007b7          	lui	a5,0x100
    27ec:	04e7aa23          	sw	a4,84(a5) # 100054 <conv_fm_height>
        interlayer_conv_a();
    27f0:	db0fe0ef          	jal	ra,da0 <interlayer_conv_a>
    }

    if(PHASE_BLK2_1_IS_ACTIVE)
    {
        // Blk2_x
        for(i=0; i<3; i++)
    27f4:	fe042623          	sw	zero,-20(s0)
    27f8:	17c0006f          	j	2974 <shufflenet_v2+0x2d0>
        {
            wt_dwc_param = &g_blk2_x_dwc_wt[i];
    27fc:	fec42703          	lw	a4,-20(s0)
    2800:	00070793          	mv	a5,a4
    2804:	00279793          	slli	a5,a5,0x2
    2808:	00e787b3          	add	a5,a5,a4
    280c:	00279793          	slli	a5,a5,0x2
    2810:	00101737          	lui	a4,0x101
    2814:	c7470713          	addi	a4,a4,-908 # 100c74 <g_blk2_x_dwc_wt>
    2818:	00e78733          	add	a4,a5,a4
    281c:	001007b7          	lui	a5,0x100
    2820:	04e7ac23          	sw	a4,88(a5) # 100058 <wt_dwc_param>
            wt_conv_param = &g_blk2_x_conv_wt[i];
    2824:	fec42703          	lw	a4,-20(s0)
    2828:	00070793          	mv	a5,a4
    282c:	00279793          	slli	a5,a5,0x2
    2830:	00e787b3          	add	a5,a5,a4
    2834:	00279793          	slli	a5,a5,0x2
    2838:	00101737          	lui	a4,0x101
    283c:	cb070713          	addi	a4,a4,-848 # 100cb0 <g_blk2_x_conv_wt>
    2840:	00e78733          	add	a4,a5,a4
    2844:	001007b7          	lui	a5,0x100
    2848:	06e7a823          	sw	a4,112(a5) # 100070 <wt_conv_param>
            bias_dwc_param = &g_blk2_x_dwc_bias[i];
    284c:	fec42703          	lw	a4,-20(s0)
    2850:	00070793          	mv	a5,a4
    2854:	00279793          	slli	a5,a5,0x2
    2858:	00e787b3          	add	a5,a5,a4
    285c:	00279793          	slli	a5,a5,0x2
    2860:	00101737          	lui	a4,0x101
    2864:	cec70713          	addi	a4,a4,-788 # 100cec <g_blk2_x_dwc_bias>
    2868:	00e78733          	add	a4,a5,a4
    286c:	001007b7          	lui	a5,0x100
    2870:	04e7a223          	sw	a4,68(a5) # 100044 <bias_dwc_param>
            bias_conv_param = &g_blk2_x_conv_bias[i];
    2874:	fec42703          	lw	a4,-20(s0)
    2878:	00070793          	mv	a5,a4
    287c:	00279793          	slli	a5,a5,0x2
    2880:	00e787b3          	add	a5,a5,a4
    2884:	00279793          	slli	a5,a5,0x2
    2888:	00101737          	lui	a4,0x101
    288c:	d2870713          	addi	a4,a4,-728 # 100d28 <g_blk2_x_conv_bias>
    2890:	00e78733          	add	a4,a5,a4
    2894:	001007b7          	lui	a5,0x100
    2898:	00e7ac23          	sw	a4,24(a5) # 100018 <bias_conv_param>
            ifm_param = &g_blk2_x_ifm[i];
    289c:	fec42703          	lw	a4,-20(s0)
    28a0:	00070793          	mv	a5,a4
    28a4:	00279793          	slli	a5,a5,0x2
    28a8:	00e787b3          	add	a5,a5,a4
    28ac:	00279793          	slli	a5,a5,0x2
    28b0:	00101737          	lui	a4,0x101
    28b4:	c3870713          	addi	a4,a4,-968 # 100c38 <g_blk2_x_ifm>
    28b8:	00e78733          	add	a4,a5,a4
    28bc:	001007b7          	lui	a5,0x100
    28c0:	02e7ae23          	sw	a4,60(a5) # 10003c <ifm_param>
            ofm_param = &g_blk2_x_ofm[i];
    28c4:	fec42783          	lw	a5,-20(s0)
    28c8:	00479713          	slli	a4,a5,0x4
    28cc:	001017b7          	lui	a5,0x101
    28d0:	d6478793          	addi	a5,a5,-668 # 100d64 <g_blk2_x_ofm>
    28d4:	00f70733          	add	a4,a4,a5
    28d8:	001007b7          	lui	a5,0x100
    28dc:	02e7a223          	sw	a4,36(a5) # 100024 <ofm_param>
            right_a_param = &g_blk2_x_ra[i];
    28e0:	fec42783          	lw	a5,-20(s0)
    28e4:	00579713          	slli	a4,a5,0x5
    28e8:	001007b7          	lui	a5,0x100
    28ec:	28878793          	addi	a5,a5,648 # 100288 <g_blk2_x_ra>
    28f0:	00f70733          	add	a4,a4,a5
    28f4:	001007b7          	lui	a5,0x100
    28f8:	06e7ac23          	sw	a4,120(a5) # 100078 <right_a_param>
            right_b_param = &g_blk2_x_rb[i];
    28fc:	fec42783          	lw	a5,-20(s0)
    2900:	00579713          	slli	a4,a5,0x5
    2904:	001007b7          	lui	a5,0x100
    2908:	2e878793          	addi	a5,a5,744 # 1002e8 <g_blk2_x_rb>
    290c:	00f70733          	add	a4,a4,a5
    2910:	001007b7          	lui	a5,0x100
    2914:	02e7a623          	sw	a4,44(a5) # 10002c <right_b_param>
            right_c_param = &g_blk2_x_rc[i];
    2918:	fec42783          	lw	a5,-20(s0)
    291c:	00579713          	slli	a4,a5,0x5
    2920:	001007b7          	lui	a5,0x100
    2924:	34878793          	addi	a5,a5,840 # 100348 <g_blk2_x_rc>
    2928:	00f70733          	add	a4,a4,a5
    292c:	001007b7          	lui	a5,0x100
    2930:	02e7a423          	sw	a4,40(a5) # 100028 <right_c_param>
            left_dt_param = &g_blk2_x_dt;
    2934:	001007b7          	lui	a5,0x100
    2938:	00100737          	lui	a4,0x100
    293c:	3a870713          	addi	a4,a4,936 # 1003a8 <g_blk2_x_dt>
    2940:	04e7a023          	sw	a4,64(a5) # 100040 <left_dt_param>
            conv_fm_height = g_blk2_x_fm_height;
    2944:	001017b7          	lui	a5,0x101
    2948:	6747a703          	lw	a4,1652(a5) # 101674 <g_blk2_x_fm_height>
    294c:	001007b7          	lui	a5,0x100
    2950:	04e7aa23          	sw	a4,84(a5) # 100054 <conv_fm_height>
            conv_ifm_offset = g_blk2_x_ifm_offset;
    2954:	001017b7          	lui	a5,0x101
    2958:	6787a703          	lw	a4,1656(a5) # 101678 <g_blk2_x_ifm_offset>
    295c:	001007b7          	lui	a5,0x100
    2960:	06e7aa23          	sw	a4,116(a5) # 100074 <conv_ifm_offset>
            interlayer_conv_b();
    2964:	884ff0ef          	jal	ra,19e8 <interlayer_conv_b>
        for(i=0; i<3; i++)
    2968:	fec42783          	lw	a5,-20(s0)
    296c:	00178793          	addi	a5,a5,1
    2970:	fef42623          	sw	a5,-20(s0)
    2974:	fec42703          	lw	a4,-20(s0)
    2978:	00200793          	li	a5,2
    297c:	e8e7d0e3          	ble	a4,a5,27fc <shufflenet_v2+0x158>
    }

    if(PHASE_BLK3_1_IS_ACTIVE)
    {
        // Blk3_1
        wt_dwc_param = &g_blk3_1_dwc_wt;
    2980:	001007b7          	lui	a5,0x100
    2984:	00101737          	lui	a4,0x101
    2988:	da870713          	addi	a4,a4,-600 # 100da8 <g_blk3_1_dwc_wt>
    298c:	04e7ac23          	sw	a4,88(a5) # 100058 <wt_dwc_param>
        wt_conv_param = &g_blk3_1_conv_wt;
    2990:	001007b7          	lui	a5,0x100
    2994:	00101737          	lui	a4,0x101
    2998:	dbc70713          	addi	a4,a4,-580 # 100dbc <g_blk3_1_conv_wt>
    299c:	06e7a823          	sw	a4,112(a5) # 100070 <wt_conv_param>
        bias_dwc_param = &g_blk3_1_dwc_bias;
    29a0:	001007b7          	lui	a5,0x100
    29a4:	00101737          	lui	a4,0x101
    29a8:	dd070713          	addi	a4,a4,-560 # 100dd0 <g_blk3_1_dwc_bias>
    29ac:	04e7a223          	sw	a4,68(a5) # 100044 <bias_dwc_param>
        bias_conv_param = &g_blk3_1_conv_bias;
    29b0:	001007b7          	lui	a5,0x100
    29b4:	00101737          	lui	a4,0x101
    29b8:	de470713          	addi	a4,a4,-540 # 100de4 <g_blk3_1_conv_bias>
    29bc:	00e7ac23          	sw	a4,24(a5) # 100018 <bias_conv_param>
        ifm_param = &g_blk3_1_ifm;
    29c0:	001007b7          	lui	a5,0x100
    29c4:	00101737          	lui	a4,0x101
    29c8:	d9470713          	addi	a4,a4,-620 # 100d94 <g_blk3_1_ifm>
    29cc:	02e7ae23          	sw	a4,60(a5) # 10003c <ifm_param>
        ofm_param = &g_blk3_1_ofm;
    29d0:	001007b7          	lui	a5,0x100
    29d4:	00101737          	lui	a4,0x101
    29d8:	df870713          	addi	a4,a4,-520 # 100df8 <g_blk3_1_ofm>
    29dc:	02e7a223          	sw	a4,36(a5) # 100024 <ofm_param>
        right_a_param = &g_blk3_1_ra;
    29e0:	001007b7          	lui	a5,0x100
    29e4:	00100737          	lui	a4,0x100
    29e8:	3fc70713          	addi	a4,a4,1020 # 1003fc <g_blk3_1_ra>
    29ec:	06e7ac23          	sw	a4,120(a5) # 100078 <right_a_param>
        right_b_param = &g_blk3_1_rb;
    29f0:	001007b7          	lui	a5,0x100
    29f4:	00100737          	lui	a4,0x100
    29f8:	41c70713          	addi	a4,a4,1052 # 10041c <g_blk3_1_rb>
    29fc:	02e7a623          	sw	a4,44(a5) # 10002c <right_b_param>
        right_c_param = &g_blk3_1_rc;
    2a00:	001007b7          	lui	a5,0x100
    2a04:	00100737          	lui	a4,0x100
    2a08:	43c70713          	addi	a4,a4,1084 # 10043c <g_blk3_1_rc>
    2a0c:	02e7a423          	sw	a4,40(a5) # 100028 <right_c_param>
        left_b_param = &g_blk3_1_lb;
    2a10:	001007b7          	lui	a5,0x100
    2a14:	00100737          	lui	a4,0x100
    2a18:	3bc70713          	addi	a4,a4,956 # 1003bc <g_blk3_1_lb>
    2a1c:	04e7ae23          	sw	a4,92(a5) # 10005c <left_b_param>
        left_c_param = &g_blk3_1_lc;
    2a20:	001007b7          	lui	a5,0x100
    2a24:	00100737          	lui	a4,0x100
    2a28:	3dc70713          	addi	a4,a4,988 # 1003dc <g_blk3_1_lc>
    2a2c:	02e7a823          	sw	a4,48(a5) # 100030 <left_c_param>
        conv_fm_height = g_blk3_1_fm_height;
    2a30:	001017b7          	lui	a5,0x101
    2a34:	67c7a703          	lw	a4,1660(a5) # 10167c <g_blk3_1_fm_height>
    2a38:	001007b7          	lui	a5,0x100
    2a3c:	04e7aa23          	sw	a4,84(a5) # 100054 <conv_fm_height>
        interlayer_conv_a();
    2a40:	b60fe0ef          	jal	ra,da0 <interlayer_conv_a>
    }

    if(PHASE_BLK4_1_IS_ACTIVE)
    {
        // Blk4_x
        for(i=0; i<7; i++)
    2a44:	fe042623          	sw	zero,-20(s0)
    2a48:	17c0006f          	j	2bc4 <shufflenet_v2+0x520>
        {
            wt_dwc_param = &g_blk4_x_dwc_wt[i];
    2a4c:	fec42703          	lw	a4,-20(s0)
    2a50:	00070793          	mv	a5,a4
    2a54:	00279793          	slli	a5,a5,0x2
    2a58:	00e787b3          	add	a5,a5,a4
    2a5c:	00279793          	slli	a5,a5,0x2
    2a60:	00101737          	lui	a4,0x101
    2a64:	e9470713          	addi	a4,a4,-364 # 100e94 <g_blk4_x_dwc_wt>
    2a68:	00e78733          	add	a4,a5,a4
    2a6c:	001007b7          	lui	a5,0x100
    2a70:	04e7ac23          	sw	a4,88(a5) # 100058 <wt_dwc_param>
            wt_conv_param = &g_blk4_x_conv_wt[i];
    2a74:	fec42703          	lw	a4,-20(s0)
    2a78:	00070793          	mv	a5,a4
    2a7c:	00279793          	slli	a5,a5,0x2
    2a80:	00e787b3          	add	a5,a5,a4
    2a84:	00279793          	slli	a5,a5,0x2
    2a88:	00101737          	lui	a4,0x101
    2a8c:	f2070713          	addi	a4,a4,-224 # 100f20 <g_blk4_x_conv_wt>
    2a90:	00e78733          	add	a4,a5,a4
    2a94:	001007b7          	lui	a5,0x100
    2a98:	06e7a823          	sw	a4,112(a5) # 100070 <wt_conv_param>
            bias_dwc_param = &g_blk4_x_dwc_bias[i];
    2a9c:	fec42703          	lw	a4,-20(s0)
    2aa0:	00070793          	mv	a5,a4
    2aa4:	00279793          	slli	a5,a5,0x2
    2aa8:	00e787b3          	add	a5,a5,a4
    2aac:	00279793          	slli	a5,a5,0x2
    2ab0:	00101737          	lui	a4,0x101
    2ab4:	fac70713          	addi	a4,a4,-84 # 100fac <g_blk4_x_dwc_bias>
    2ab8:	00e78733          	add	a4,a5,a4
    2abc:	001007b7          	lui	a5,0x100
    2ac0:	04e7a223          	sw	a4,68(a5) # 100044 <bias_dwc_param>
            bias_conv_param = &g_blk4_x_conv_bias[i];
    2ac4:	fec42703          	lw	a4,-20(s0)
    2ac8:	00070793          	mv	a5,a4
    2acc:	00279793          	slli	a5,a5,0x2
    2ad0:	00e787b3          	add	a5,a5,a4
    2ad4:	00279793          	slli	a5,a5,0x2
    2ad8:	00101737          	lui	a4,0x101
    2adc:	03870713          	addi	a4,a4,56 # 101038 <g_blk4_x_conv_bias>
    2ae0:	00e78733          	add	a4,a5,a4
    2ae4:	001007b7          	lui	a5,0x100
    2ae8:	00e7ac23          	sw	a4,24(a5) # 100018 <bias_conv_param>
            ifm_param = &g_blk4_x_ifm[i];
    2aec:	fec42703          	lw	a4,-20(s0)
    2af0:	00070793          	mv	a5,a4
    2af4:	00279793          	slli	a5,a5,0x2
    2af8:	00e787b3          	add	a5,a5,a4
    2afc:	00279793          	slli	a5,a5,0x2
    2b00:	00101737          	lui	a4,0x101
    2b04:	e0870713          	addi	a4,a4,-504 # 100e08 <g_blk4_x_ifm>
    2b08:	00e78733          	add	a4,a5,a4
    2b0c:	001007b7          	lui	a5,0x100
    2b10:	02e7ae23          	sw	a4,60(a5) # 10003c <ifm_param>
            ofm_param = &g_blk4_x_ofm[i];
    2b14:	fec42783          	lw	a5,-20(s0)
    2b18:	00479713          	slli	a4,a5,0x4
    2b1c:	001017b7          	lui	a5,0x101
    2b20:	0c478793          	addi	a5,a5,196 # 1010c4 <g_blk4_x_ofm>
    2b24:	00f70733          	add	a4,a4,a5
    2b28:	001007b7          	lui	a5,0x100
    2b2c:	02e7a223          	sw	a4,36(a5) # 100024 <ofm_param>
            right_a_param = &g_blk4_x_ra[i];
    2b30:	fec42783          	lw	a5,-20(s0)
    2b34:	00579713          	slli	a4,a5,0x5
    2b38:	001007b7          	lui	a5,0x100
    2b3c:	45c78793          	addi	a5,a5,1116 # 10045c <g_blk4_x_ra>
    2b40:	00f70733          	add	a4,a4,a5
    2b44:	001007b7          	lui	a5,0x100
    2b48:	06e7ac23          	sw	a4,120(a5) # 100078 <right_a_param>
            right_b_param = &g_blk4_x_rb[i];
    2b4c:	fec42783          	lw	a5,-20(s0)
    2b50:	00579713          	slli	a4,a5,0x5
    2b54:	001007b7          	lui	a5,0x100
    2b58:	53c78793          	addi	a5,a5,1340 # 10053c <g_blk4_x_rb>
    2b5c:	00f70733          	add	a4,a4,a5
    2b60:	001007b7          	lui	a5,0x100
    2b64:	02e7a623          	sw	a4,44(a5) # 10002c <right_b_param>
            right_c_param = &g_blk4_x_rc[i];
    2b68:	fec42783          	lw	a5,-20(s0)
    2b6c:	00579713          	slli	a4,a5,0x5
    2b70:	001007b7          	lui	a5,0x100
    2b74:	61c78793          	addi	a5,a5,1564 # 10061c <g_blk4_x_rc>
    2b78:	00f70733          	add	a4,a4,a5
    2b7c:	001007b7          	lui	a5,0x100
    2b80:	02e7a423          	sw	a4,40(a5) # 100028 <right_c_param>
            left_dt_param = &g_blk4_x_dt;
    2b84:	001007b7          	lui	a5,0x100
    2b88:	00100737          	lui	a4,0x100
    2b8c:	6fc70713          	addi	a4,a4,1788 # 1006fc <g_blk4_x_dt>
    2b90:	04e7a023          	sw	a4,64(a5) # 100040 <left_dt_param>
            conv_fm_height = g_blk4_x_fm_height;
    2b94:	001017b7          	lui	a5,0x101
    2b98:	6807a703          	lw	a4,1664(a5) # 101680 <g_blk4_x_fm_height>
    2b9c:	001007b7          	lui	a5,0x100
    2ba0:	04e7aa23          	sw	a4,84(a5) # 100054 <conv_fm_height>
            conv_ifm_offset = g_blk4_x_ifm_offset;
    2ba4:	001017b7          	lui	a5,0x101
    2ba8:	6847a703          	lw	a4,1668(a5) # 101684 <g_blk4_x_ifm_offset>
    2bac:	001007b7          	lui	a5,0x100
    2bb0:	06e7aa23          	sw	a4,116(a5) # 100074 <conv_ifm_offset>
            interlayer_conv_b();
    2bb4:	e35fe0ef          	jal	ra,19e8 <interlayer_conv_b>
        for(i=0; i<7; i++)
    2bb8:	fec42783          	lw	a5,-20(s0)
    2bbc:	00178793          	addi	a5,a5,1
    2bc0:	fef42623          	sw	a5,-20(s0)
    2bc4:	fec42703          	lw	a4,-20(s0)
    2bc8:	00600793          	li	a5,6
    2bcc:	e8e7d0e3          	ble	a4,a5,2a4c <shufflenet_v2+0x3a8>
        }
    }

    conv_ch64 = 1;
    2bd0:	001007b7          	lui	a5,0x100
    2bd4:	00100713          	li	a4,1
    2bd8:	04e7a623          	sw	a4,76(a5) # 10004c <conv_ch64>
    if(PHASE_BLK5_1_IS_ACTIVE)
    {
        // transform data format from ch8 to ch64
        ifm_param = &g_fmtrans_ifm;
    2bdc:	001007b7          	lui	a5,0x100
    2be0:	00101737          	lui	a4,0x101
    2be4:	13470713          	addi	a4,a4,308 # 101134 <g_fmtrans_ifm>
    2be8:	02e7ae23          	sw	a4,60(a5) # 10003c <ifm_param>
        ofm_param = &g_fmtrans_ofm;
    2bec:	001007b7          	lui	a5,0x100
    2bf0:	00101737          	lui	a4,0x101
    2bf4:	14870713          	addi	a4,a4,328 # 101148 <g_fmtrans_ofm>
    2bf8:	02e7a223          	sw	a4,36(a5) # 100024 <ofm_param>
        ftrans_param = &g_fmtrans;
    2bfc:	001007b7          	lui	a5,0x100
    2c00:	00100737          	lui	a4,0x100
    2c04:	71070713          	addi	a4,a4,1808 # 100710 <g_fmtrans>
    2c08:	06e7a623          	sw	a4,108(a5) # 10006c <ftrans_param>
        conv_fm_height = g_fmtrans_fm_height;
    2c0c:	001017b7          	lui	a5,0x101
    2c10:	6887a703          	lw	a4,1672(a5) # 101688 <g_fmtrans_fm_height>
    2c14:	001007b7          	lui	a5,0x100
    2c18:	04e7aa23          	sw	a4,84(a5) # 100054 <conv_fm_height>
        trans_fmt();
    2c1c:	d8cff0ef          	jal	ra,21a8 <trans_fmt>

        // Blk5_1
        wt_dwc_param = &g_blk5_1_dwc_wt;
    2c20:	001007b7          	lui	a5,0x100
    2c24:	00101737          	lui	a4,0x101
    2c28:	16c70713          	addi	a4,a4,364 # 10116c <g_blk5_1_dwc_wt>
    2c2c:	04e7ac23          	sw	a4,88(a5) # 100058 <wt_dwc_param>
        wt_conv_param = &g_blk5_1_conv_wt;
    2c30:	001007b7          	lui	a5,0x100
    2c34:	00101737          	lui	a4,0x101
    2c38:	18070713          	addi	a4,a4,384 # 101180 <g_blk5_1_conv_wt>
    2c3c:	06e7a823          	sw	a4,112(a5) # 100070 <wt_conv_param>
        bias_dwc_param = &g_blk5_1_dwc_bias;
    2c40:	001007b7          	lui	a5,0x100
    2c44:	00101737          	lui	a4,0x101
    2c48:	19470713          	addi	a4,a4,404 # 101194 <g_blk5_1_dwc_bias>
    2c4c:	04e7a223          	sw	a4,68(a5) # 100044 <bias_dwc_param>
        bias_conv_param = &g_blk5_1_conv_bias;
    2c50:	001007b7          	lui	a5,0x100
    2c54:	00101737          	lui	a4,0x101
    2c58:	1a870713          	addi	a4,a4,424 # 1011a8 <g_blk5_1_conv_bias>
    2c5c:	00e7ac23          	sw	a4,24(a5) # 100018 <bias_conv_param>
        ifm_param = &g_blk5_1_ifm;
    2c60:	001007b7          	lui	a5,0x100
    2c64:	00101737          	lui	a4,0x101
    2c68:	15870713          	addi	a4,a4,344 # 101158 <g_blk5_1_ifm>
    2c6c:	02e7ae23          	sw	a4,60(a5) # 10003c <ifm_param>
        ofm_param = &g_blk5_1_ofm;
    2c70:	001007b7          	lui	a5,0x100
    2c74:	00101737          	lui	a4,0x101
    2c78:	1bc70713          	addi	a4,a4,444 # 1011bc <g_blk5_1_ofm>
    2c7c:	02e7a223          	sw	a4,36(a5) # 100024 <ofm_param>
        right_a_param = &g_blk5_1_ra;
    2c80:	001007b7          	lui	a5,0x100
    2c84:	00100737          	lui	a4,0x100
    2c88:	76070713          	addi	a4,a4,1888 # 100760 <g_blk5_1_ra>
    2c8c:	06e7ac23          	sw	a4,120(a5) # 100078 <right_a_param>
        right_b_param = &g_blk5_1_rb;
    2c90:	001007b7          	lui	a5,0x100
    2c94:	00100737          	lui	a4,0x100
    2c98:	78070713          	addi	a4,a4,1920 # 100780 <g_blk5_1_rb>
    2c9c:	02e7a623          	sw	a4,44(a5) # 10002c <right_b_param>
        right_c_param = &g_blk5_1_rc;
    2ca0:	001007b7          	lui	a5,0x100
    2ca4:	00100737          	lui	a4,0x100
    2ca8:	7a070713          	addi	a4,a4,1952 # 1007a0 <g_blk5_1_rc>
    2cac:	02e7a423          	sw	a4,40(a5) # 100028 <right_c_param>
        left_b_param = &g_blk5_1_lb;
    2cb0:	001007b7          	lui	a5,0x100
    2cb4:	00100737          	lui	a4,0x100
    2cb8:	72070713          	addi	a4,a4,1824 # 100720 <g_blk5_1_lb>
    2cbc:	04e7ae23          	sw	a4,92(a5) # 10005c <left_b_param>
        left_c_param = &g_blk5_1_lc;
    2cc0:	001007b7          	lui	a5,0x100
    2cc4:	00100737          	lui	a4,0x100
    2cc8:	74070713          	addi	a4,a4,1856 # 100740 <g_blk5_1_lc>
    2ccc:	02e7a823          	sw	a4,48(a5) # 100030 <left_c_param>
        conv_fm_height = g_blk5_1_fm_height;
    2cd0:	001017b7          	lui	a5,0x101
    2cd4:	68c7a703          	lw	a4,1676(a5) # 10168c <g_blk5_1_fm_height>
    2cd8:	001007b7          	lui	a5,0x100
    2cdc:	04e7aa23          	sw	a4,84(a5) # 100054 <conv_fm_height>
        interlayer_conv_a();
    2ce0:	8c0fe0ef          	jal	ra,da0 <interlayer_conv_a>
    }

    if(PHASE_BLK6_1_IS_ACTIVE)
    {
        // Blk6_x
        for(i=0; i<9; i++)
    2ce4:	fe042623          	sw	zero,-20(s0)
    2ce8:	17c0006f          	j	2e64 <shufflenet_v2+0x7c0>
        {
            wt_dwc_param = &g_blk6_x_dwc_wt[i];
    2cec:	fec42703          	lw	a4,-20(s0)
    2cf0:	00070793          	mv	a5,a4
    2cf4:	00279793          	slli	a5,a5,0x2
    2cf8:	00e787b3          	add	a5,a5,a4
    2cfc:	00279793          	slli	a5,a5,0x2
    2d00:	00101737          	lui	a4,0x101
    2d04:	28070713          	addi	a4,a4,640 # 101280 <g_blk6_x_dwc_wt>
    2d08:	00e78733          	add	a4,a5,a4
    2d0c:	001007b7          	lui	a5,0x100
    2d10:	04e7ac23          	sw	a4,88(a5) # 100058 <wt_dwc_param>
            wt_conv_param = &g_blk6_x_conv_wt[i];
    2d14:	fec42703          	lw	a4,-20(s0)
    2d18:	00070793          	mv	a5,a4
    2d1c:	00279793          	slli	a5,a5,0x2
    2d20:	00e787b3          	add	a5,a5,a4
    2d24:	00279793          	slli	a5,a5,0x2
    2d28:	00101737          	lui	a4,0x101
    2d2c:	33470713          	addi	a4,a4,820 # 101334 <g_blk6_x_conv_wt>
    2d30:	00e78733          	add	a4,a5,a4
    2d34:	001007b7          	lui	a5,0x100
    2d38:	06e7a823          	sw	a4,112(a5) # 100070 <wt_conv_param>
            bias_dwc_param = &g_blk6_x_dwc_bias[i];
    2d3c:	fec42703          	lw	a4,-20(s0)
    2d40:	00070793          	mv	a5,a4
    2d44:	00279793          	slli	a5,a5,0x2
    2d48:	00e787b3          	add	a5,a5,a4
    2d4c:	00279793          	slli	a5,a5,0x2
    2d50:	00101737          	lui	a4,0x101
    2d54:	3e870713          	addi	a4,a4,1000 # 1013e8 <g_blk6_x_dwc_bias>
    2d58:	00e78733          	add	a4,a5,a4
    2d5c:	001007b7          	lui	a5,0x100
    2d60:	04e7a223          	sw	a4,68(a5) # 100044 <bias_dwc_param>
            bias_conv_param = &g_blk6_x_conv_bias[i];
    2d64:	fec42703          	lw	a4,-20(s0)
    2d68:	00070793          	mv	a5,a4
    2d6c:	00279793          	slli	a5,a5,0x2
    2d70:	00e787b3          	add	a5,a5,a4
    2d74:	00279793          	slli	a5,a5,0x2
    2d78:	00101737          	lui	a4,0x101
    2d7c:	49c70713          	addi	a4,a4,1180 # 10149c <g_blk6_x_conv_bias>
    2d80:	00e78733          	add	a4,a5,a4
    2d84:	001007b7          	lui	a5,0x100
    2d88:	00e7ac23          	sw	a4,24(a5) # 100018 <bias_conv_param>
            ifm_param = &g_blk6_x_ifm[i];
    2d8c:	fec42703          	lw	a4,-20(s0)
    2d90:	00070793          	mv	a5,a4
    2d94:	00279793          	slli	a5,a5,0x2
    2d98:	00e787b3          	add	a5,a5,a4
    2d9c:	00279793          	slli	a5,a5,0x2
    2da0:	00101737          	lui	a4,0x101
    2da4:	1cc70713          	addi	a4,a4,460 # 1011cc <g_blk6_x_ifm>
    2da8:	00e78733          	add	a4,a5,a4
    2dac:	001007b7          	lui	a5,0x100
    2db0:	02e7ae23          	sw	a4,60(a5) # 10003c <ifm_param>
            ofm_param = &g_blk6_x_ofm[i];
    2db4:	fec42783          	lw	a5,-20(s0)
    2db8:	00479713          	slli	a4,a5,0x4
    2dbc:	001017b7          	lui	a5,0x101
    2dc0:	55078793          	addi	a5,a5,1360 # 101550 <g_blk6_x_ofm>
    2dc4:	00f70733          	add	a4,a4,a5
    2dc8:	001007b7          	lui	a5,0x100
    2dcc:	02e7a223          	sw	a4,36(a5) # 100024 <ofm_param>
            right_a_param = &g_blk6_x_ra[i];
    2dd0:	fec42783          	lw	a5,-20(s0)
    2dd4:	00579713          	slli	a4,a5,0x5
    2dd8:	001007b7          	lui	a5,0x100
    2ddc:	7c078793          	addi	a5,a5,1984 # 1007c0 <g_blk6_x_ra>
    2de0:	00f70733          	add	a4,a4,a5
    2de4:	001007b7          	lui	a5,0x100
    2de8:	06e7ac23          	sw	a4,120(a5) # 100078 <right_a_param>
            right_b_param = &g_blk6_x_rb[i];
    2dec:	fec42783          	lw	a5,-20(s0)
    2df0:	00579713          	slli	a4,a5,0x5
    2df4:	001017b7          	lui	a5,0x101
    2df8:	8e078793          	addi	a5,a5,-1824 # 1008e0 <g_blk6_x_rb>
    2dfc:	00f70733          	add	a4,a4,a5
    2e00:	001007b7          	lui	a5,0x100
    2e04:	02e7a623          	sw	a4,44(a5) # 10002c <right_b_param>
            right_c_param = &g_blk6_x_rc[i];
    2e08:	fec42783          	lw	a5,-20(s0)
    2e0c:	00579713          	slli	a4,a5,0x5
    2e10:	001017b7          	lui	a5,0x101
    2e14:	a0078793          	addi	a5,a5,-1536 # 100a00 <g_blk6_x_rc>
    2e18:	00f70733          	add	a4,a4,a5
    2e1c:	001007b7          	lui	a5,0x100
    2e20:	02e7a423          	sw	a4,40(a5) # 100028 <right_c_param>
            left_dt_param = &g_blk6_x_dt;
    2e24:	001007b7          	lui	a5,0x100
    2e28:	00101737          	lui	a4,0x101
    2e2c:	b2070713          	addi	a4,a4,-1248 # 100b20 <g_blk6_x_dt>
    2e30:	04e7a023          	sw	a4,64(a5) # 100040 <left_dt_param>
            conv_fm_height = g_blk6_x_fm_height;
    2e34:	001017b7          	lui	a5,0x101
    2e38:	6907a703          	lw	a4,1680(a5) # 101690 <g_blk6_x_fm_height>
    2e3c:	001007b7          	lui	a5,0x100
    2e40:	04e7aa23          	sw	a4,84(a5) # 100054 <conv_fm_height>
            conv_ifm_offset = g_blk6_x_ifm_offset;
    2e44:	001017b7          	lui	a5,0x101
    2e48:	6947a703          	lw	a4,1684(a5) # 101694 <g_blk6_x_ifm_offset>
    2e4c:	001007b7          	lui	a5,0x100
    2e50:	06e7aa23          	sw	a4,116(a5) # 100074 <conv_ifm_offset>
            interlayer_conv_b();
    2e54:	b95fe0ef          	jal	ra,19e8 <interlayer_conv_b>
        for(i=0; i<9; i++)
    2e58:	fec42783          	lw	a5,-20(s0)
    2e5c:	00178793          	addi	a5,a5,1
    2e60:	fef42623          	sw	a5,-20(s0)
    2e64:	fec42703          	lw	a4,-20(s0)
    2e68:	00800793          	li	a5,8
    2e6c:	e8e7d0e3          	ble	a4,a5,2cec <shufflenet_v2+0x648>
    if(PHASE_CONVF_IS_ACTIVE)
    {
        // CONVF
        // 1st step: transform data format from ch64 to ch8
        // 2nd step: make conv preds operation
        wt_conv_param = &g_convf_wt;
    2e70:	001007b7          	lui	a5,0x100
    2e74:	00101737          	lui	a4,0x101
    2e78:	5f470713          	addi	a4,a4,1524 # 1015f4 <g_convf_wt>
    2e7c:	06e7a823          	sw	a4,112(a5) # 100070 <wt_conv_param>
        bias_conv_param = &g_convf_bias;
    2e80:	001007b7          	lui	a5,0x100
    2e84:	00101737          	lui	a4,0x101
    2e88:	60870713          	addi	a4,a4,1544 # 101608 <g_convf_bias>
    2e8c:	00e7ac23          	sw	a4,24(a5) # 100018 <bias_conv_param>
        ifm_param = &g_convf_ifm;
    2e90:	001007b7          	lui	a5,0x100
    2e94:	00101737          	lui	a4,0x101
    2e98:	5e070713          	addi	a4,a4,1504 # 1015e0 <g_convf_ifm>
    2e9c:	02e7ae23          	sw	a4,60(a5) # 10003c <ifm_param>
        ofm_param = &g_convf_ofm;
    2ea0:	001007b7          	lui	a5,0x100
    2ea4:	00101737          	lui	a4,0x101
    2ea8:	61c70713          	addi	a4,a4,1564 # 10161c <g_convf_ofm>
    2eac:	02e7a223          	sw	a4,36(a5) # 100024 <ofm_param>
        dtrans_param = &g_convf_dt;
    2eb0:	001007b7          	lui	a5,0x100
    2eb4:	00101737          	lui	a4,0x101
    2eb8:	b3470713          	addi	a4,a4,-1228 # 100b34 <g_convf_dt>
    2ebc:	00e7ae23          	sw	a4,28(a5) # 10001c <dtrans_param>
        ftrans_param = &g_convf_ft;
    2ec0:	001007b7          	lui	a5,0x100
    2ec4:	00101737          	lui	a4,0x101
    2ec8:	b4870713          	addi	a4,a4,-1208 # 100b48 <g_convf_ft>
    2ecc:	06e7a623          	sw	a4,108(a5) # 10006c <ftrans_param>
        conv_param = &g_convf;
    2ed0:	001007b7          	lui	a5,0x100
    2ed4:	00101737          	lui	a4,0x101
    2ed8:	b5870713          	addi	a4,a4,-1192 # 100b58 <g_convf>
    2edc:	02e7ac23          	sw	a4,56(a5) # 100038 <conv_param>
        conv_fm_height = g_convf_fm_height;
    2ee0:	001017b7          	lui	a5,0x101
    2ee4:	6987a703          	lw	a4,1688(a5) # 101698 <g_convf_fm_height>
    2ee8:	001007b7          	lui	a5,0x100
    2eec:	04e7aa23          	sw	a4,84(a5) # 100054 <conv_fm_height>
        convf();
    2ef0:	c04ff0ef          	jal	ra,22f4 <convf>
    }

    // upload calculation result from DDR to PS
    c_uplctrl_param g_upl_param = {DDR_B1_1_FM_ADDR, DDR_B1_1_FM_LEN*DDR_B1_1_FM_HEIGHT};
    2ef4:	003f97b7          	lui	a5,0x3f9
    2ef8:	c0078793          	addi	a5,a5,-1024 # 3f8c00 <STACK_BASE_ADDR+0x2f6c00>
    2efc:	fef42223          	sw	a5,-28(s0)
    2f00:	000017b7          	lui	a5,0x1
    2f04:	51878793          	addi	a5,a5,1304 # 1518 <interlayer_conv_a+0x778>
    2f08:	fef42423          	sw	a5,-24(s0)
    uplctrl_set(&g_upl_param);
    2f0c:	fe440793          	addi	a5,s0,-28
    2f10:	00078513          	mv	a0,a5
    2f14:	2f0000ef          	jal	ra,3204 <uplctrl_set>
    uplctrl_start();
    2f18:	314000ef          	jal	ra,322c <uplctrl_start>
}
    2f1c:	00000013          	nop
    2f20:	01c12083          	lw	ra,28(sp)
    2f24:	01812403          	lw	s0,24(sp)
    2f28:	02010113          	addi	sp,sp,32
    2f2c:	00008067          	ret

00002f30 <set_param>:
    2f30:	00060293          	mv	t0,a2
    2f34:	00052303          	lw	t1,0(a0)
    2f38:	00450513          	addi	a0,a0,4
    2f3c:	0065a023          	sw	t1,0(a1)
    2f40:	00458593          	addi	a1,a1,4
    2f44:	fff28293          	addi	t0,t0,-1
    2f48:	fe0296e3          	bnez	t0,2f34 <set_param+0x4>
    2f4c:	00008067          	ret

00002f50 <conv_set>:
    2f50:	ff010113          	addi	sp,sp,-16
    2f54:	00112623          	sw	ra,12(sp)
    2f58:	200005b7          	lui	a1,0x20000
    2f5c:	10058593          	addi	a1,a1,256 # 20000100 <DPU_CONV>
    2f60:	00458593          	addi	a1,a1,4
    2f64:	00800613          	li	a2,8
    2f68:	fc9ff0ef          	jal	ra,2f30 <set_param>
    2f6c:	00c12083          	lw	ra,12(sp)
    2f70:	01010113          	addi	sp,sp,16
    2f74:	00008067          	ret

00002f78 <conv_start>:
    2f78:	200002b7          	lui	t0,0x20000
    2f7c:	10028293          	addi	t0,t0,256 # 20000100 <DPU_CONV>
    2f80:	00300313          	li	t1,3
    2f84:	0062a023          	sw	t1,0(t0)
    2f88:	00008067          	ret

00002f8c <conv_check>:
    2f8c:	20000337          	lui	t1,0x20000
    2f90:	00432283          	lw	t0,4(t1) # 20000004 <DPU_REGMGR+0x4>
    2f94:	0012f293          	andi	t0,t0,1
    2f98:	00000513          	li	a0,0
    2f9c:	00028c63          	beqz	t0,2fb4 <conv_check_exit>
    2fa0:	20000337          	lui	t1,0x20000
    2fa4:	10030313          	addi	t1,t1,256 # 20000100 <DPU_CONV>
    2fa8:	00200293          	li	t0,2
    2fac:	00532023          	sw	t0,0(t1)
    2fb0:	00100513          	li	a0,1

00002fb4 <conv_check_exit>:
    2fb4:	00008067          	ret

00002fb8 <dwcalc_set>:
    2fb8:	ff010113          	addi	sp,sp,-16
    2fbc:	00112623          	sw	ra,12(sp)
    2fc0:	200005b7          	lui	a1,0x20000
    2fc4:	20058593          	addi	a1,a1,512 # 20000200 <DPU_DWCALC>
    2fc8:	00458593          	addi	a1,a1,4
    2fcc:	00800613          	li	a2,8
    2fd0:	f61ff0ef          	jal	ra,2f30 <set_param>
    2fd4:	00c12083          	lw	ra,12(sp)
    2fd8:	01010113          	addi	sp,sp,16
    2fdc:	00008067          	ret

00002fe0 <dwcalc_start>:
    2fe0:	200002b7          	lui	t0,0x20000
    2fe4:	20028293          	addi	t0,t0,512 # 20000200 <DPU_DWCALC>
    2fe8:	00300313          	li	t1,3
    2fec:	0062a023          	sw	t1,0(t0)
    2ff0:	00008067          	ret

00002ff4 <dwcalc_check>:
    2ff4:	20000337          	lui	t1,0x20000
    2ff8:	00432283          	lw	t0,4(t1) # 20000004 <DPU_REGMGR+0x4>
    2ffc:	0022f293          	andi	t0,t0,2
    3000:	00000513          	li	a0,0
    3004:	00028c63          	beqz	t0,301c <dwcalc_check_exit>
    3008:	20000337          	lui	t1,0x20000
    300c:	20030313          	addi	t1,t1,512 # 20000200 <DPU_DWCALC>
    3010:	00200293          	li	t0,2
    3014:	00532023          	sw	t0,0(t1)
    3018:	00100513          	li	a0,1

0000301c <dwcalc_check_exit>:
    301c:	00008067          	ret

00003020 <dtrans_set>:
    3020:	ff010113          	addi	sp,sp,-16
    3024:	00112623          	sw	ra,12(sp)
    3028:	200005b7          	lui	a1,0x20000
    302c:	30058593          	addi	a1,a1,768 # 20000300 <DPU_DTRANS>
    3030:	00458593          	addi	a1,a1,4
    3034:	00500613          	li	a2,5
    3038:	ef9ff0ef          	jal	ra,2f30 <set_param>
    303c:	00c12083          	lw	ra,12(sp)
    3040:	01010113          	addi	sp,sp,16
    3044:	00008067          	ret

00003048 <dtrans_start>:
    3048:	200002b7          	lui	t0,0x20000
    304c:	30028293          	addi	t0,t0,768 # 20000300 <DPU_DTRANS>
    3050:	00300313          	li	t1,3
    3054:	0062a023          	sw	t1,0(t0)
    3058:	00008067          	ret

0000305c <dtrans_check>:
    305c:	20000337          	lui	t1,0x20000
    3060:	00432283          	lw	t0,4(t1) # 20000004 <DPU_REGMGR+0x4>
    3064:	0042f293          	andi	t0,t0,4
    3068:	0022d513          	srli	a0,t0,0x2
    306c:	00028a63          	beqz	t0,3080 <dtrans_check_exit>
    3070:	20000337          	lui	t1,0x20000
    3074:	30030313          	addi	t1,t1,768 # 20000300 <DPU_DTRANS>
    3078:	00200293          	li	t0,2
    307c:	00532023          	sw	t0,0(t1)

00003080 <dtrans_check_exit>:
    3080:	00008067          	ret

00003084 <ftrans_set>:
    3084:	ff010113          	addi	sp,sp,-16
    3088:	00112623          	sw	ra,12(sp)
    308c:	200005b7          	lui	a1,0x20000
    3090:	40058593          	addi	a1,a1,1024 # 20000400 <DPU_FTRANS>
    3094:	00458593          	addi	a1,a1,4
    3098:	00400613          	li	a2,4
    309c:	e95ff0ef          	jal	ra,2f30 <set_param>
    30a0:	00c12083          	lw	ra,12(sp)
    30a4:	01010113          	addi	sp,sp,16
    30a8:	00008067          	ret

000030ac <ftrans_start>:
    30ac:	200002b7          	lui	t0,0x20000
    30b0:	40028293          	addi	t0,t0,1024 # 20000400 <DPU_FTRANS>
    30b4:	00300313          	li	t1,3
    30b8:	0062a023          	sw	t1,0(t0)
    30bc:	00008067          	ret

000030c0 <ftrans_check>:
    30c0:	20000337          	lui	t1,0x20000
    30c4:	00432283          	lw	t0,4(t1) # 20000004 <DPU_REGMGR+0x4>
    30c8:	0082f293          	andi	t0,t0,8
    30cc:	0032d513          	srli	a0,t0,0x3
    30d0:	00028a63          	beqz	t0,30e4 <ftrans_check_exit>
    30d4:	20000337          	lui	t1,0x20000
    30d8:	40030313          	addi	t1,t1,1024 # 20000400 <DPU_FTRANS>
    30dc:	00200293          	li	t0,2
    30e0:	00532023          	sw	t0,0(t1)

000030e4 <ftrans_check_exit>:
    30e4:	00008067          	ret

000030e8 <ldmr_set>:
    30e8:	ff010113          	addi	sp,sp,-16
    30ec:	00112623          	sw	ra,12(sp)
    30f0:	200005b7          	lui	a1,0x20000
    30f4:	50058593          	addi	a1,a1,1280 # 20000500 <DPU_LDMR>
    30f8:	00458593          	addi	a1,a1,4
    30fc:	00500613          	li	a2,5
    3100:	e31ff0ef          	jal	ra,2f30 <set_param>
    3104:	00c12083          	lw	ra,12(sp)
    3108:	01010113          	addi	sp,sp,16
    310c:	00008067          	ret

00003110 <ldmr_start>:
    3110:	200002b7          	lui	t0,0x20000
    3114:	50028293          	addi	t0,t0,1280 # 20000500 <DPU_LDMR>
    3118:	00300313          	li	t1,3
    311c:	0062a023          	sw	t1,0(t0)
    3120:	00008067          	ret

00003124 <ldmr_check>:
    3124:	20000337          	lui	t1,0x20000
    3128:	00432283          	lw	t0,4(t1) # 20000004 <DPU_REGMGR+0x4>
    312c:	0102f293          	andi	t0,t0,16
    3130:	0042d513          	srli	a0,t0,0x4
    3134:	00028a63          	beqz	t0,3148 <ldmr_check_exit>
    3138:	20000337          	lui	t1,0x20000
    313c:	50030313          	addi	t1,t1,1280 # 20000500 <DPU_LDMR>
    3140:	00200293          	li	t0,2
    3144:	00532023          	sw	t0,0(t1)

00003148 <ldmr_check_exit>:
    3148:	00008067          	ret

0000314c <svmr_set>:
    314c:	ff010113          	addi	sp,sp,-16
    3150:	00112623          	sw	ra,12(sp)
    3154:	200005b7          	lui	a1,0x20000
    3158:	60058593          	addi	a1,a1,1536 # 20000600 <DPU_SVMR>
    315c:	00458593          	addi	a1,a1,4
    3160:	00400613          	li	a2,4
    3164:	dcdff0ef          	jal	ra,2f30 <set_param>
    3168:	00c12083          	lw	ra,12(sp)
    316c:	01010113          	addi	sp,sp,16
    3170:	00008067          	ret

00003174 <svmr_start>:
    3174:	200002b7          	lui	t0,0x20000
    3178:	60028293          	addi	t0,t0,1536 # 20000600 <DPU_SVMR>
    317c:	00300313          	li	t1,3
    3180:	0062a023          	sw	t1,0(t0)
    3184:	00008067          	ret

00003188 <svmr_check>:
    3188:	20000337          	lui	t1,0x20000
    318c:	00432283          	lw	t0,4(t1) # 20000004 <DPU_REGMGR+0x4>
    3190:	0202f293          	andi	t0,t0,32
    3194:	0052d513          	srli	a0,t0,0x5
    3198:	00028a63          	beqz	t0,31ac <svmr_check_exit>
    319c:	20000337          	lui	t1,0x20000
    31a0:	60030313          	addi	t1,t1,1536 # 20000600 <DPU_SVMR>
    31a4:	00200293          	li	t0,2
    31a8:	00532023          	sw	t0,0(t1)

000031ac <svmr_check_exit>:
    31ac:	00008067          	ret

000031b0 <dlctrl_set>:
    31b0:	ff010113          	addi	sp,sp,-16
    31b4:	00112623          	sw	ra,12(sp)
    31b8:	200002b7          	lui	t0,0x20000
    31bc:	70028293          	addi	t0,t0,1792 # 20000700 <DPU_DLCTRL>
    31c0:	00052303          	lw	t1,0(a0)
    31c4:	0062a223          	sw	t1,4(t0)
    31c8:	00000393          	li	t2,0
    31cc:	0072a023          	sw	t2,0(t0)
    31d0:	00452303          	lw	t1,4(a0)
    31d4:	0062a223          	sw	t1,4(t0)
    31d8:	00100393          	li	t2,1
    31dc:	0072a023          	sw	t2,0(t0)
    31e0:	00852303          	lw	t1,8(a0)
    31e4:	0062a223          	sw	t1,4(t0)
    31e8:	00200393          	li	t2,2
    31ec:	0072a023          	sw	t2,0(t0)
    31f0:	00100313          	li	t1,1
    31f4:	0062a423          	sw	t1,8(t0)
    31f8:	00c12083          	lw	ra,12(sp)
    31fc:	01010113          	addi	sp,sp,16
    3200:	00008067          	ret

00003204 <uplctrl_set>:
    3204:	ff010113          	addi	sp,sp,-16
    3208:	00112623          	sw	ra,12(sp)
    320c:	200015b7          	lui	a1,0x20001
    3210:	80058593          	addi	a1,a1,-2048 # 20000800 <DPU_UPLCTRL>
    3214:	00458593          	addi	a1,a1,4
    3218:	00100613          	li	a2,1
    321c:	d15ff0ef          	jal	ra,2f30 <set_param>
    3220:	00c12083          	lw	ra,12(sp)
    3224:	01010113          	addi	sp,sp,16
    3228:	00008067          	ret

0000322c <uplctrl_start>:
    322c:	200012b7          	lui	t0,0x20001
    3230:	80028293          	addi	t0,t0,-2048 # 20000800 <DPU_UPLCTRL>
    3234:	00300313          	li	t1,3
    3238:	0062a023          	sw	t1,0(t0)
    323c:	00008067          	ret

00003240 <fshflg_ps>:
    3240:	200002b7          	lui	t0,0x20000
    3244:	00100313          	li	t1,1
    3248:	0062a023          	sw	t1,0(t0) # 20000000 <DPU_REGMGR>
    324c:	00008067          	ret

00003250 <init_intr>:
    3250:	ff810113          	addi	sp,sp,-8
    3254:	00112223          	sw	ra,4(sp)
    3258:	000fe297          	auipc	t0,0xfe
    325c:	3d428293          	addi	t0,t0,980 # 10162c <intr_conv_act>
    3260:	0002a023          	sw	zero,0(t0)
    3264:	000fe297          	auipc	t0,0xfe
    3268:	3cc28293          	addi	t0,t0,972 # 101630 <intr_dwcalc_act>
    326c:	0002a023          	sw	zero,0(t0)
    3270:	000fe297          	auipc	t0,0xfe
    3274:	3c428293          	addi	t0,t0,964 # 101634 <intr_dtrans_act>
    3278:	0002a023          	sw	zero,0(t0)
    327c:	000fe297          	auipc	t0,0xfe
    3280:	3bc28293          	addi	t0,t0,956 # 101638 <intr_ftrans_act>
    3284:	0002a023          	sw	zero,0(t0)
    3288:	000fe297          	auipc	t0,0xfe
    328c:	3b428293          	addi	t0,t0,948 # 10163c <intr_ldmr_act>
    3290:	0002a023          	sw	zero,0(t0)
    3294:	000fe297          	auipc	t0,0xfe
    3298:	3ac28293          	addi	t0,t0,940 # 101640 <intr_svmr_act>
    329c:	0002a023          	sw	zero,0(t0)
    32a0:	000fe297          	auipc	t0,0xfe
    32a4:	3a428293          	addi	t0,t0,932 # 101644 <intr_stcalc_act>
    32a8:	0002a023          	sw	zero,0(t0)
    32ac:	00810113          	addi	sp,sp,8
    32b0:	0600600b          	0x600600b
    32b4:	00008067          	ret
